ARM GAS  /tmp/ccu8aDA4.s 			page 1


   1              		.cpu cortex-m4
   2              		.eabi_attribute 27, 1
   3              		.eabi_attribute 28, 1
   4              		.eabi_attribute 20, 1
   5              		.eabi_attribute 21, 1
   6              		.eabi_attribute 23, 3
   7              		.eabi_attribute 24, 1
   8              		.eabi_attribute 25, 1
   9              		.eabi_attribute 26, 1
  10              		.eabi_attribute 30, 1
  11              		.eabi_attribute 34, 1
  12              		.eabi_attribute 18, 4
  13              		.file	"dac.c"
  14              		.text
  15              	.Ltext0:
  16              		.cfi_sections	.debug_frame
  17              		.section	.text.MX_DAC1_Init,"ax",%progbits
  18              		.align	1
  19              		.global	MX_DAC1_Init
  20              		.arch armv7e-m
  21              		.syntax unified
  22              		.thumb
  23              		.thumb_func
  24              		.fpu fpv4-sp-d16
  26              	MX_DAC1_Init:
  27              	.LFB406:
  28              		.file 1 "Src/dac.c"
   1:Src/dac.c     **** /**
   2:Src/dac.c     ****   ******************************************************************************
   3:Src/dac.c     ****   * File Name          : DAC.c
   4:Src/dac.c     ****   * Description        : This file provides code for the configuration
   5:Src/dac.c     ****   *                      of the DAC instances.
   6:Src/dac.c     ****   ******************************************************************************
   7:Src/dac.c     ****   * @attention
   8:Src/dac.c     ****   *
   9:Src/dac.c     ****   * <h2><center>&copy; Copyright (c) 2020 STMicroelectronics.
  10:Src/dac.c     ****   * All rights reserved.</center></h2>
  11:Src/dac.c     ****   *
  12:Src/dac.c     ****   * This software component is licensed by ST under BSD 3-Clause license,
  13:Src/dac.c     ****   * the "License"; You may not use this file except in compliance with the
  14:Src/dac.c     ****   * License. You may obtain a copy of the License at:
  15:Src/dac.c     ****   *                        opensource.org/licenses/BSD-3-Clause
  16:Src/dac.c     ****   *
  17:Src/dac.c     ****   ******************************************************************************
  18:Src/dac.c     ****   */
  19:Src/dac.c     **** 
  20:Src/dac.c     **** /* Includes ------------------------------------------------------------------*/
  21:Src/dac.c     **** #include "dac.h"
  22:Src/dac.c     **** 
  23:Src/dac.c     **** /* USER CODE BEGIN 0 */
  24:Src/dac.c     **** 
  25:Src/dac.c     **** /* USER CODE END 0 */
  26:Src/dac.c     **** 
  27:Src/dac.c     **** DAC_HandleTypeDef hdac1;
  28:Src/dac.c     **** 
  29:Src/dac.c     **** /* DAC1 init function */
  30:Src/dac.c     **** void MX_DAC1_Init(void)
ARM GAS  /tmp/ccu8aDA4.s 			page 2


  31:Src/dac.c     **** {
  29              		.loc 1 31 1 view -0
  30              		.cfi_startproc
  31              		@ args = 0, pretend = 0, frame = 48
  32              		@ frame_needed = 0, uses_anonymous_args = 0
  33 0000 00B5     		push	{lr}
  34              	.LCFI0:
  35              		.cfi_def_cfa_offset 4
  36              		.cfi_offset 14, -4
  37 0002 8DB0     		sub	sp, sp, #52
  38              	.LCFI1:
  39              		.cfi_def_cfa_offset 56
  32:Src/dac.c     ****   DAC_ChannelConfTypeDef sConfig = {0};
  40              		.loc 1 32 3 view .LVU1
  41              		.loc 1 32 26 is_stmt 0 view .LVU2
  42 0004 3022     		movs	r2, #48
  43 0006 0021     		movs	r1, #0
  44 0008 6846     		mov	r0, sp
  45 000a FFF7FEFF 		bl	memset
  46              	.LVL0:
  33:Src/dac.c     **** 
  34:Src/dac.c     ****   /** DAC Initialization 
  35:Src/dac.c     ****   */
  36:Src/dac.c     ****   hdac1.Instance = DAC1;
  47              		.loc 1 36 3 is_stmt 1 view .LVU3
  48              		.loc 1 36 18 is_stmt 0 view .LVU4
  49 000e 1148     		ldr	r0, .L7
  50 0010 114B     		ldr	r3, .L7+4
  51 0012 0360     		str	r3, [r0]
  37:Src/dac.c     ****   if (HAL_DAC_Init(&hdac1) != HAL_OK)
  52              		.loc 1 37 3 is_stmt 1 view .LVU5
  53              		.loc 1 37 7 is_stmt 0 view .LVU6
  54 0014 FFF7FEFF 		bl	HAL_DAC_Init
  55              	.LVL1:
  56              		.loc 1 37 6 view .LVU7
  57 0018 A8B9     		cbnz	r0, .L5
  58              	.L2:
  38:Src/dac.c     ****   {
  39:Src/dac.c     ****     Error_Handler();
  40:Src/dac.c     ****   }
  41:Src/dac.c     ****   /** DAC channel OUT1 config 
  42:Src/dac.c     ****   */
  43:Src/dac.c     ****   sConfig.DAC_HighFrequency = DAC_HIGH_FREQUENCY_INTERFACE_MODE_AUTOMATIC;
  59              		.loc 1 43 3 is_stmt 1 view .LVU8
  60              		.loc 1 43 29 is_stmt 0 view .LVU9
  61 001a 0223     		movs	r3, #2
  62 001c 0093     		str	r3, [sp]
  44:Src/dac.c     ****   sConfig.DAC_DMADoubleDataMode = DISABLE;
  63              		.loc 1 44 3 is_stmt 1 view .LVU10
  64              		.loc 1 44 33 is_stmt 0 view .LVU11
  65 001e 0022     		movs	r2, #0
  66 0020 8DF80420 		strb	r2, [sp, #4]
  45:Src/dac.c     ****   sConfig.DAC_SignedFormat = DISABLE;
  67              		.loc 1 45 3 is_stmt 1 view .LVU12
  68              		.loc 1 45 28 is_stmt 0 view .LVU13
  69 0024 8DF80520 		strb	r2, [sp, #5]
  46:Src/dac.c     ****   sConfig.DAC_SampleAndHold = DAC_SAMPLEANDHOLD_DISABLE;
ARM GAS  /tmp/ccu8aDA4.s 			page 3


  70              		.loc 1 46 3 is_stmt 1 view .LVU14
  71              		.loc 1 46 29 is_stmt 0 view .LVU15
  72 0028 0292     		str	r2, [sp, #8]
  47:Src/dac.c     ****   sConfig.DAC_Trigger = DAC_TRIGGER_NONE;
  73              		.loc 1 47 3 is_stmt 1 view .LVU16
  74              		.loc 1 47 23 is_stmt 0 view .LVU17
  75 002a 0392     		str	r2, [sp, #12]
  48:Src/dac.c     ****   sConfig.DAC_Trigger2 = DAC_TRIGGER_NONE;
  76              		.loc 1 48 3 is_stmt 1 view .LVU18
  77              		.loc 1 48 24 is_stmt 0 view .LVU19
  78 002c 0492     		str	r2, [sp, #16]
  49:Src/dac.c     ****   sConfig.DAC_OutputBuffer = DAC_OUTPUTBUFFER_ENABLE;
  79              		.loc 1 49 3 is_stmt 1 view .LVU20
  80              		.loc 1 49 28 is_stmt 0 view .LVU21
  81 002e 0592     		str	r2, [sp, #20]
  50:Src/dac.c     ****   sConfig.DAC_ConnectOnChipPeripheral = DAC_CHIPCONNECT_DISABLE;
  82              		.loc 1 50 3 is_stmt 1 view .LVU22
  83              		.loc 1 50 39 is_stmt 0 view .LVU23
  84 0030 0523     		movs	r3, #5
  85 0032 0693     		str	r3, [sp, #24]
  51:Src/dac.c     ****   sConfig.DAC_UserTrimming = DAC_TRIMMING_FACTORY;
  86              		.loc 1 51 3 is_stmt 1 view .LVU24
  87              		.loc 1 51 28 is_stmt 0 view .LVU25
  88 0034 0792     		str	r2, [sp, #28]
  52:Src/dac.c     ****   if (HAL_DAC_ConfigChannel(&hdac1, &sConfig, DAC_CHANNEL_1) != HAL_OK)
  89              		.loc 1 52 3 is_stmt 1 view .LVU26
  90              		.loc 1 52 7 is_stmt 0 view .LVU27
  91 0036 6946     		mov	r1, sp
  92 0038 0648     		ldr	r0, .L7
  93 003a FFF7FEFF 		bl	HAL_DAC_ConfigChannel
  94              	.LVL2:
  95              		.loc 1 52 6 view .LVU28
  96 003e 28B9     		cbnz	r0, .L6
  97              	.L1:
  53:Src/dac.c     ****   {
  54:Src/dac.c     ****     Error_Handler();
  55:Src/dac.c     ****   }
  56:Src/dac.c     **** 
  57:Src/dac.c     **** }
  98              		.loc 1 57 1 view .LVU29
  99 0040 0DB0     		add	sp, sp, #52
 100              	.LCFI2:
 101              		.cfi_remember_state
 102              		.cfi_def_cfa_offset 4
 103              		@ sp needed
 104 0042 5DF804FB 		ldr	pc, [sp], #4
 105              	.L5:
 106              	.LCFI3:
 107              		.cfi_restore_state
  39:Src/dac.c     ****   }
 108              		.loc 1 39 5 is_stmt 1 view .LVU30
 109 0046 FFF7FEFF 		bl	Error_Handler
 110              	.LVL3:
 111 004a E6E7     		b	.L2
 112              	.L6:
  54:Src/dac.c     ****   }
 113              		.loc 1 54 5 view .LVU31
ARM GAS  /tmp/ccu8aDA4.s 			page 4


 114 004c FFF7FEFF 		bl	Error_Handler
 115              	.LVL4:
 116              		.loc 1 57 1 is_stmt 0 view .LVU32
 117 0050 F6E7     		b	.L1
 118              	.L8:
 119 0052 00BF     		.align	2
 120              	.L7:
 121 0054 00000000 		.word	hdac1
 122 0058 00080050 		.word	1342179328
 123              		.cfi_endproc
 124              	.LFE406:
 126              		.section	.text.HAL_DAC_MspInit,"ax",%progbits
 127              		.align	1
 128              		.global	HAL_DAC_MspInit
 129              		.syntax unified
 130              		.thumb
 131              		.thumb_func
 132              		.fpu fpv4-sp-d16
 134              	HAL_DAC_MspInit:
 135              	.LVL5:
 136              	.LFB407:
  58:Src/dac.c     **** 
  59:Src/dac.c     **** void HAL_DAC_MspInit(DAC_HandleTypeDef* dacHandle)
  60:Src/dac.c     **** {
 137              		.loc 1 60 1 is_stmt 1 view -0
 138              		.cfi_startproc
 139              		@ args = 0, pretend = 0, frame = 32
 140              		@ frame_needed = 0, uses_anonymous_args = 0
 141              		.loc 1 60 1 is_stmt 0 view .LVU34
 142 0000 00B5     		push	{lr}
 143              	.LCFI4:
 144              		.cfi_def_cfa_offset 4
 145              		.cfi_offset 14, -4
 146 0002 89B0     		sub	sp, sp, #36
 147              	.LCFI5:
 148              		.cfi_def_cfa_offset 40
  61:Src/dac.c     **** 
  62:Src/dac.c     ****   GPIO_InitTypeDef GPIO_InitStruct = {0};
 149              		.loc 1 62 3 is_stmt 1 view .LVU35
 150              		.loc 1 62 20 is_stmt 0 view .LVU36
 151 0004 0023     		movs	r3, #0
 152 0006 0393     		str	r3, [sp, #12]
 153 0008 0493     		str	r3, [sp, #16]
 154 000a 0593     		str	r3, [sp, #20]
 155 000c 0693     		str	r3, [sp, #24]
 156 000e 0793     		str	r3, [sp, #28]
  63:Src/dac.c     ****   if(dacHandle->Instance==DAC1)
 157              		.loc 1 63 3 is_stmt 1 view .LVU37
 158              		.loc 1 63 15 is_stmt 0 view .LVU38
 159 0010 0268     		ldr	r2, [r0]
 160              		.loc 1 63 5 view .LVU39
 161 0012 134B     		ldr	r3, .L13
 162 0014 9A42     		cmp	r2, r3
 163 0016 02D0     		beq	.L12
 164              	.LVL6:
 165              	.L9:
  64:Src/dac.c     ****   {
ARM GAS  /tmp/ccu8aDA4.s 			page 5


  65:Src/dac.c     ****   /* USER CODE BEGIN DAC1_MspInit 0 */
  66:Src/dac.c     **** 
  67:Src/dac.c     ****   /* USER CODE END DAC1_MspInit 0 */
  68:Src/dac.c     ****     /* DAC1 clock enable */
  69:Src/dac.c     ****     __HAL_RCC_DAC1_CLK_ENABLE();
  70:Src/dac.c     ****   
  71:Src/dac.c     ****     __HAL_RCC_GPIOA_CLK_ENABLE();
  72:Src/dac.c     ****     /**DAC1 GPIO Configuration    
  73:Src/dac.c     ****     PA4     ------> DAC1_OUT1 
  74:Src/dac.c     ****     */
  75:Src/dac.c     ****     GPIO_InitStruct.Pin = Iset_Pin;
  76:Src/dac.c     ****     GPIO_InitStruct.Mode = GPIO_MODE_ANALOG;
  77:Src/dac.c     ****     GPIO_InitStruct.Pull = GPIO_NOPULL;
  78:Src/dac.c     ****     HAL_GPIO_Init(Iset_GPIO_Port, &GPIO_InitStruct);
  79:Src/dac.c     **** 
  80:Src/dac.c     ****   /* USER CODE BEGIN DAC1_MspInit 1 */
  81:Src/dac.c     **** 
  82:Src/dac.c     ****   /* USER CODE END DAC1_MspInit 1 */
  83:Src/dac.c     ****   }
  84:Src/dac.c     **** }
 166              		.loc 1 84 1 view .LVU40
 167 0018 09B0     		add	sp, sp, #36
 168              	.LCFI6:
 169              		.cfi_remember_state
 170              		.cfi_def_cfa_offset 4
 171              		@ sp needed
 172 001a 5DF804FB 		ldr	pc, [sp], #4
 173              	.LVL7:
 174              	.L12:
 175              	.LCFI7:
 176              		.cfi_restore_state
  69:Src/dac.c     ****   
 177              		.loc 1 69 5 is_stmt 1 view .LVU41
 178              	.LBB2:
  69:Src/dac.c     ****   
 179              		.loc 1 69 5 view .LVU42
  69:Src/dac.c     ****   
 180              		.loc 1 69 5 view .LVU43
 181 001e 03F17043 		add	r3, r3, #-268435456
 182 0022 03F50233 		add	r3, r3, #133120
 183 0026 DA6C     		ldr	r2, [r3, #76]
 184 0028 42F48032 		orr	r2, r2, #65536
 185 002c DA64     		str	r2, [r3, #76]
  69:Src/dac.c     ****   
 186              		.loc 1 69 5 view .LVU44
 187 002e DA6C     		ldr	r2, [r3, #76]
 188 0030 02F48032 		and	r2, r2, #65536
 189 0034 0192     		str	r2, [sp, #4]
  69:Src/dac.c     ****   
 190              		.loc 1 69 5 view .LVU45
 191 0036 019A     		ldr	r2, [sp, #4]
 192              	.LBE2:
  71:Src/dac.c     ****     /**DAC1 GPIO Configuration    
 193              		.loc 1 71 5 view .LVU46
 194              	.LBB3:
  71:Src/dac.c     ****     /**DAC1 GPIO Configuration    
 195              		.loc 1 71 5 view .LVU47
ARM GAS  /tmp/ccu8aDA4.s 			page 6


  71:Src/dac.c     ****     /**DAC1 GPIO Configuration    
 196              		.loc 1 71 5 view .LVU48
 197 0038 DA6C     		ldr	r2, [r3, #76]
 198 003a 42F00102 		orr	r2, r2, #1
 199 003e DA64     		str	r2, [r3, #76]
  71:Src/dac.c     ****     /**DAC1 GPIO Configuration    
 200              		.loc 1 71 5 view .LVU49
 201 0040 DB6C     		ldr	r3, [r3, #76]
 202 0042 03F00103 		and	r3, r3, #1
 203 0046 0293     		str	r3, [sp, #8]
  71:Src/dac.c     ****     /**DAC1 GPIO Configuration    
 204              		.loc 1 71 5 view .LVU50
 205 0048 029B     		ldr	r3, [sp, #8]
 206              	.LBE3:
  75:Src/dac.c     ****     GPIO_InitStruct.Mode = GPIO_MODE_ANALOG;
 207              		.loc 1 75 5 view .LVU51
  75:Src/dac.c     ****     GPIO_InitStruct.Mode = GPIO_MODE_ANALOG;
 208              		.loc 1 75 25 is_stmt 0 view .LVU52
 209 004a 1023     		movs	r3, #16
 210 004c 0393     		str	r3, [sp, #12]
  76:Src/dac.c     ****     GPIO_InitStruct.Pull = GPIO_NOPULL;
 211              		.loc 1 76 5 is_stmt 1 view .LVU53
  76:Src/dac.c     ****     GPIO_InitStruct.Pull = GPIO_NOPULL;
 212              		.loc 1 76 26 is_stmt 0 view .LVU54
 213 004e 0323     		movs	r3, #3
 214 0050 0493     		str	r3, [sp, #16]
  77:Src/dac.c     ****     HAL_GPIO_Init(Iset_GPIO_Port, &GPIO_InitStruct);
 215              		.loc 1 77 5 is_stmt 1 view .LVU55
  78:Src/dac.c     **** 
 216              		.loc 1 78 5 view .LVU56
 217 0052 03A9     		add	r1, sp, #12
 218 0054 4FF09040 		mov	r0, #1207959552
 219              	.LVL8:
  78:Src/dac.c     **** 
 220              		.loc 1 78 5 is_stmt 0 view .LVU57
 221 0058 FFF7FEFF 		bl	HAL_GPIO_Init
 222              	.LVL9:
 223              		.loc 1 84 1 view .LVU58
 224 005c DCE7     		b	.L9
 225              	.L14:
 226 005e 00BF     		.align	2
 227              	.L13:
 228 0060 00080050 		.word	1342179328
 229              		.cfi_endproc
 230              	.LFE407:
 232              		.section	.text.HAL_DAC_MspDeInit,"ax",%progbits
 233              		.align	1
 234              		.global	HAL_DAC_MspDeInit
 235              		.syntax unified
 236              		.thumb
 237              		.thumb_func
 238              		.fpu fpv4-sp-d16
 240              	HAL_DAC_MspDeInit:
 241              	.LVL10:
 242              	.LFB408:
  85:Src/dac.c     **** 
  86:Src/dac.c     **** void HAL_DAC_MspDeInit(DAC_HandleTypeDef* dacHandle)
ARM GAS  /tmp/ccu8aDA4.s 			page 7


  87:Src/dac.c     **** {
 243              		.loc 1 87 1 is_stmt 1 view -0
 244              		.cfi_startproc
 245              		@ args = 0, pretend = 0, frame = 0
 246              		@ frame_needed = 0, uses_anonymous_args = 0
 247              		.loc 1 87 1 is_stmt 0 view .LVU60
 248 0000 08B5     		push	{r3, lr}
 249              	.LCFI8:
 250              		.cfi_def_cfa_offset 8
 251              		.cfi_offset 3, -8
 252              		.cfi_offset 14, -4
  88:Src/dac.c     **** 
  89:Src/dac.c     ****   if(dacHandle->Instance==DAC1)
 253              		.loc 1 89 3 is_stmt 1 view .LVU61
 254              		.loc 1 89 15 is_stmt 0 view .LVU62
 255 0002 0268     		ldr	r2, [r0]
 256              		.loc 1 89 5 view .LVU63
 257 0004 074B     		ldr	r3, .L19
 258 0006 9A42     		cmp	r2, r3
 259 0008 00D0     		beq	.L18
 260              	.LVL11:
 261              	.L15:
  90:Src/dac.c     ****   {
  91:Src/dac.c     ****   /* USER CODE BEGIN DAC1_MspDeInit 0 */
  92:Src/dac.c     **** 
  93:Src/dac.c     ****   /* USER CODE END DAC1_MspDeInit 0 */
  94:Src/dac.c     ****     /* Peripheral clock disable */
  95:Src/dac.c     ****     __HAL_RCC_DAC1_CLK_DISABLE();
  96:Src/dac.c     ****   
  97:Src/dac.c     ****     /**DAC1 GPIO Configuration    
  98:Src/dac.c     ****     PA4     ------> DAC1_OUT1 
  99:Src/dac.c     ****     */
 100:Src/dac.c     ****     HAL_GPIO_DeInit(Iset_GPIO_Port, Iset_Pin);
 101:Src/dac.c     **** 
 102:Src/dac.c     ****   /* USER CODE BEGIN DAC1_MspDeInit 1 */
 103:Src/dac.c     **** 
 104:Src/dac.c     ****   /* USER CODE END DAC1_MspDeInit 1 */
 105:Src/dac.c     ****   }
 106:Src/dac.c     **** } 
 262              		.loc 1 106 1 view .LVU64
 263 000a 08BD     		pop	{r3, pc}
 264              	.LVL12:
 265              	.L18:
  95:Src/dac.c     ****   
 266              		.loc 1 95 5 is_stmt 1 view .LVU65
 267 000c 064A     		ldr	r2, .L19+4
 268 000e D36C     		ldr	r3, [r2, #76]
 269 0010 23F48033 		bic	r3, r3, #65536
 270 0014 D364     		str	r3, [r2, #76]
 100:Src/dac.c     **** 
 271              		.loc 1 100 5 view .LVU66
 272 0016 1021     		movs	r1, #16
 273 0018 4FF09040 		mov	r0, #1207959552
 274              	.LVL13:
 100:Src/dac.c     **** 
 275              		.loc 1 100 5 is_stmt 0 view .LVU67
 276 001c FFF7FEFF 		bl	HAL_GPIO_DeInit
ARM GAS  /tmp/ccu8aDA4.s 			page 8


 277              	.LVL14:
 278              		.loc 1 106 1 view .LVU68
 279 0020 F3E7     		b	.L15
 280              	.L20:
 281 0022 00BF     		.align	2
 282              	.L19:
 283 0024 00080050 		.word	1342179328
 284 0028 00100240 		.word	1073876992
 285              		.cfi_endproc
 286              	.LFE408:
 288              		.comm	hdac1,20,4
 289              		.text
 290              	.Letext0:
 291              		.file 2 "/home/alex/opt/gcc-arm-none-eabi-8-2018-q4-major/arm-none-eabi/include/machine/_default_t
 292              		.file 3 "/home/alex/opt/gcc-arm-none-eabi-8-2018-q4-major/arm-none-eabi/include/sys/_stdint.h"
 293              		.file 4 "Drivers/CMSIS/Include/core_cm4.h"
 294              		.file 5 "Drivers/CMSIS/Device/ST/STM32G4xx/Include/system_stm32g4xx.h"
 295              		.file 6 "Drivers/CMSIS/Device/ST/STM32G4xx/Include/stm32g474xx.h"
 296              		.file 7 "Drivers/CMSIS/Device/ST/STM32G4xx/Include/stm32g4xx.h"
 297              		.file 8 "Drivers/STM32G4xx_HAL_Driver/Inc/stm32g4xx_hal_def.h"
 298              		.file 9 "Drivers/STM32G4xx_HAL_Driver/Inc/stm32g4xx_hal_gpio.h"
 299              		.file 10 "Drivers/STM32G4xx_HAL_Driver/Inc/stm32g4xx_hal_dma.h"
 300              		.file 11 "Drivers/STM32G4xx_HAL_Driver/Inc/stm32g4xx_hal_dac.h"
 301              		.file 12 "Drivers/STM32G4xx_HAL_Driver/Inc/stm32g4xx_hal_flash.h"
 302              		.file 13 "Drivers/STM32G4xx_HAL_Driver/Inc/stm32g4xx_hal.h"
 303              		.file 14 "Inc/dac.h"
 304              		.file 15 "Inc/main.h"
 305              		.file 16 "<built-in>"
ARM GAS  /tmp/ccu8aDA4.s 			page 9

