ARM GAS  /tmp/cc9EFiwU.s 			page 1


   1              		.cpu cortex-m4
   2              		.eabi_attribute 27, 1
   3              		.eabi_attribute 28, 1
   4              		.eabi_attribute 20, 1
   5              		.eabi_attribute 21, 1
   6              		.eabi_attribute 23, 3
   7              		.eabi_attribute 24, 1
   8              		.eabi_attribute 25, 1
   9              		.eabi_attribute 26, 1
  10              		.eabi_attribute 30, 1
  11              		.eabi_attribute 34, 1
  12              		.eabi_attribute 18, 4
  13              		.file	"stm32g4xx_hal_pwr_ex.c"
  14              		.text
  15              	.Ltext0:
  16              		.cfi_sections	.debug_frame
  17              		.section	.text.HAL_PWREx_GetVoltageRange,"ax",%progbits
  18              		.align	1
  19              		.global	HAL_PWREx_GetVoltageRange
  20              		.arch armv7e-m
  21              		.syntax unified
  22              		.thumb
  23              		.thumb_func
  24              		.fpu fpv4-sp-d16
  26              	HAL_PWREx_GetVoltageRange:
  27              	.LFB325:
  28              		.file 1 "Drivers/STM32G4xx_HAL_Driver/Src/stm32g4xx_hal_pwr_ex.c"
   1:Drivers/STM32G4xx_HAL_Driver/Src/stm32g4xx_hal_pwr_ex.c **** /**
   2:Drivers/STM32G4xx_HAL_Driver/Src/stm32g4xx_hal_pwr_ex.c ****   ******************************************************************************
   3:Drivers/STM32G4xx_HAL_Driver/Src/stm32g4xx_hal_pwr_ex.c ****   * @file    stm32g4xx_hal_pwr_ex.c
   4:Drivers/STM32G4xx_HAL_Driver/Src/stm32g4xx_hal_pwr_ex.c ****   * @author  MCD Application Team
   5:Drivers/STM32G4xx_HAL_Driver/Src/stm32g4xx_hal_pwr_ex.c ****   * @brief   Extended PWR HAL module driver.
   6:Drivers/STM32G4xx_HAL_Driver/Src/stm32g4xx_hal_pwr_ex.c ****   *          This file provides firmware functions to manage the following
   7:Drivers/STM32G4xx_HAL_Driver/Src/stm32g4xx_hal_pwr_ex.c ****   *          functionalities of the Power Controller (PWR) peripheral:
   8:Drivers/STM32G4xx_HAL_Driver/Src/stm32g4xx_hal_pwr_ex.c ****   *           + Extended Initialization and de-initialization functions
   9:Drivers/STM32G4xx_HAL_Driver/Src/stm32g4xx_hal_pwr_ex.c ****   *           + Extended Peripheral Control functions
  10:Drivers/STM32G4xx_HAL_Driver/Src/stm32g4xx_hal_pwr_ex.c ****   *
  11:Drivers/STM32G4xx_HAL_Driver/Src/stm32g4xx_hal_pwr_ex.c ****   ******************************************************************************
  12:Drivers/STM32G4xx_HAL_Driver/Src/stm32g4xx_hal_pwr_ex.c ****   * @attention
  13:Drivers/STM32G4xx_HAL_Driver/Src/stm32g4xx_hal_pwr_ex.c ****   *
  14:Drivers/STM32G4xx_HAL_Driver/Src/stm32g4xx_hal_pwr_ex.c ****   * <h2><center>&copy; Copyright (c) 2019 STMicroelectronics.
  15:Drivers/STM32G4xx_HAL_Driver/Src/stm32g4xx_hal_pwr_ex.c ****   * All rights reserved.</center></h2>
  16:Drivers/STM32G4xx_HAL_Driver/Src/stm32g4xx_hal_pwr_ex.c ****   *
  17:Drivers/STM32G4xx_HAL_Driver/Src/stm32g4xx_hal_pwr_ex.c ****   * This software component is licensed by ST under BSD 3-Clause license,
  18:Drivers/STM32G4xx_HAL_Driver/Src/stm32g4xx_hal_pwr_ex.c ****   * the "License"; You may not use this file except in compliance with the
  19:Drivers/STM32G4xx_HAL_Driver/Src/stm32g4xx_hal_pwr_ex.c ****   * License. You may obtain a copy of the License at:
  20:Drivers/STM32G4xx_HAL_Driver/Src/stm32g4xx_hal_pwr_ex.c ****   *                        opensource.org/licenses/BSD-3-Clause
  21:Drivers/STM32G4xx_HAL_Driver/Src/stm32g4xx_hal_pwr_ex.c ****   *
  22:Drivers/STM32G4xx_HAL_Driver/Src/stm32g4xx_hal_pwr_ex.c ****   ******************************************************************************
  23:Drivers/STM32G4xx_HAL_Driver/Src/stm32g4xx_hal_pwr_ex.c ****   */
  24:Drivers/STM32G4xx_HAL_Driver/Src/stm32g4xx_hal_pwr_ex.c **** 
  25:Drivers/STM32G4xx_HAL_Driver/Src/stm32g4xx_hal_pwr_ex.c **** /* Includes ------------------------------------------------------------------*/
  26:Drivers/STM32G4xx_HAL_Driver/Src/stm32g4xx_hal_pwr_ex.c **** #include "stm32g4xx_hal.h"
  27:Drivers/STM32G4xx_HAL_Driver/Src/stm32g4xx_hal_pwr_ex.c **** 
  28:Drivers/STM32G4xx_HAL_Driver/Src/stm32g4xx_hal_pwr_ex.c **** /** @addtogroup STM32G4xx_HAL_Driver
  29:Drivers/STM32G4xx_HAL_Driver/Src/stm32g4xx_hal_pwr_ex.c ****   * @{
  30:Drivers/STM32G4xx_HAL_Driver/Src/stm32g4xx_hal_pwr_ex.c ****   */
ARM GAS  /tmp/cc9EFiwU.s 			page 2


  31:Drivers/STM32G4xx_HAL_Driver/Src/stm32g4xx_hal_pwr_ex.c **** 
  32:Drivers/STM32G4xx_HAL_Driver/Src/stm32g4xx_hal_pwr_ex.c **** /** @defgroup PWREx PWREx
  33:Drivers/STM32G4xx_HAL_Driver/Src/stm32g4xx_hal_pwr_ex.c ****   * @brief PWR Extended HAL module driver
  34:Drivers/STM32G4xx_HAL_Driver/Src/stm32g4xx_hal_pwr_ex.c ****   * @{
  35:Drivers/STM32G4xx_HAL_Driver/Src/stm32g4xx_hal_pwr_ex.c ****   */
  36:Drivers/STM32G4xx_HAL_Driver/Src/stm32g4xx_hal_pwr_ex.c **** 
  37:Drivers/STM32G4xx_HAL_Driver/Src/stm32g4xx_hal_pwr_ex.c **** #ifdef HAL_PWR_MODULE_ENABLED
  38:Drivers/STM32G4xx_HAL_Driver/Src/stm32g4xx_hal_pwr_ex.c **** 
  39:Drivers/STM32G4xx_HAL_Driver/Src/stm32g4xx_hal_pwr_ex.c **** /* Private typedef -----------------------------------------------------------*/
  40:Drivers/STM32G4xx_HAL_Driver/Src/stm32g4xx_hal_pwr_ex.c **** /* Private define ------------------------------------------------------------*/
  41:Drivers/STM32G4xx_HAL_Driver/Src/stm32g4xx_hal_pwr_ex.c **** 
  42:Drivers/STM32G4xx_HAL_Driver/Src/stm32g4xx_hal_pwr_ex.c **** 
  43:Drivers/STM32G4xx_HAL_Driver/Src/stm32g4xx_hal_pwr_ex.c **** #if defined (STM32G471xx) || defined (STM32G473xx) || defined (STM32G474xx) || defined (STM32G483xx
  44:Drivers/STM32G4xx_HAL_Driver/Src/stm32g4xx_hal_pwr_ex.c **** #define PWR_PORTF_AVAILABLE_PINS   0x0000FFFFU /* PF0..PF15 */
  45:Drivers/STM32G4xx_HAL_Driver/Src/stm32g4xx_hal_pwr_ex.c **** #define PWR_PORTG_AVAILABLE_PINS   0x000007FFU /* PG0..PG10 */
  46:Drivers/STM32G4xx_HAL_Driver/Src/stm32g4xx_hal_pwr_ex.c **** #elif defined (STM32G431xx) || defined (STM32G441xx) || defined (STM32GBK1CB)
  47:Drivers/STM32G4xx_HAL_Driver/Src/stm32g4xx_hal_pwr_ex.c **** #define PWR_PORTF_AVAILABLE_PINS   0x00000607U /* PF0..PF2 and PF9 and PF10 */
  48:Drivers/STM32G4xx_HAL_Driver/Src/stm32g4xx_hal_pwr_ex.c **** #define PWR_PORTG_AVAILABLE_PINS   0x00000400U /* PG10 */
  49:Drivers/STM32G4xx_HAL_Driver/Src/stm32g4xx_hal_pwr_ex.c **** #endif
  50:Drivers/STM32G4xx_HAL_Driver/Src/stm32g4xx_hal_pwr_ex.c **** 
  51:Drivers/STM32G4xx_HAL_Driver/Src/stm32g4xx_hal_pwr_ex.c **** /** @defgroup PWR_Extended_Private_Defines PWR Extended Private Defines
  52:Drivers/STM32G4xx_HAL_Driver/Src/stm32g4xx_hal_pwr_ex.c ****   * @{
  53:Drivers/STM32G4xx_HAL_Driver/Src/stm32g4xx_hal_pwr_ex.c ****   */
  54:Drivers/STM32G4xx_HAL_Driver/Src/stm32g4xx_hal_pwr_ex.c **** 
  55:Drivers/STM32G4xx_HAL_Driver/Src/stm32g4xx_hal_pwr_ex.c **** /** @defgroup PWREx_PVM_Mode_Mask PWR PVM Mode Mask
  56:Drivers/STM32G4xx_HAL_Driver/Src/stm32g4xx_hal_pwr_ex.c ****   * @{
  57:Drivers/STM32G4xx_HAL_Driver/Src/stm32g4xx_hal_pwr_ex.c ****   */
  58:Drivers/STM32G4xx_HAL_Driver/Src/stm32g4xx_hal_pwr_ex.c **** #define PVM_MODE_IT               0x00010000U    /*!< Mask for interruption yielded by PVM threshol
  59:Drivers/STM32G4xx_HAL_Driver/Src/stm32g4xx_hal_pwr_ex.c **** #define PVM_MODE_EVT              0x00020000U    /*!< Mask for event yielded by PVM threshold cross
  60:Drivers/STM32G4xx_HAL_Driver/Src/stm32g4xx_hal_pwr_ex.c **** #define PVM_RISING_EDGE           0x00000001U    /*!< Mask for rising edge set as PVM trigger      
  61:Drivers/STM32G4xx_HAL_Driver/Src/stm32g4xx_hal_pwr_ex.c **** #define PVM_FALLING_EDGE          0x00000002U    /*!< Mask for falling edge set as PVM trigger     
  62:Drivers/STM32G4xx_HAL_Driver/Src/stm32g4xx_hal_pwr_ex.c **** /**
  63:Drivers/STM32G4xx_HAL_Driver/Src/stm32g4xx_hal_pwr_ex.c ****   * @}
  64:Drivers/STM32G4xx_HAL_Driver/Src/stm32g4xx_hal_pwr_ex.c ****   */
  65:Drivers/STM32G4xx_HAL_Driver/Src/stm32g4xx_hal_pwr_ex.c **** 
  66:Drivers/STM32G4xx_HAL_Driver/Src/stm32g4xx_hal_pwr_ex.c **** /** @defgroup PWREx_TimeOut_Value PWR Extended Flag Setting Time Out Value
  67:Drivers/STM32G4xx_HAL_Driver/Src/stm32g4xx_hal_pwr_ex.c ****   * @{
  68:Drivers/STM32G4xx_HAL_Driver/Src/stm32g4xx_hal_pwr_ex.c ****   */
  69:Drivers/STM32G4xx_HAL_Driver/Src/stm32g4xx_hal_pwr_ex.c **** #define PWR_FLAG_SETTING_DELAY_US                      50UL   /*!< Time out value for REGLPF and VO
  70:Drivers/STM32G4xx_HAL_Driver/Src/stm32g4xx_hal_pwr_ex.c **** /**
  71:Drivers/STM32G4xx_HAL_Driver/Src/stm32g4xx_hal_pwr_ex.c ****   * @}
  72:Drivers/STM32G4xx_HAL_Driver/Src/stm32g4xx_hal_pwr_ex.c ****   */
  73:Drivers/STM32G4xx_HAL_Driver/Src/stm32g4xx_hal_pwr_ex.c **** 
  74:Drivers/STM32G4xx_HAL_Driver/Src/stm32g4xx_hal_pwr_ex.c **** 
  75:Drivers/STM32G4xx_HAL_Driver/Src/stm32g4xx_hal_pwr_ex.c **** 
  76:Drivers/STM32G4xx_HAL_Driver/Src/stm32g4xx_hal_pwr_ex.c **** /**
  77:Drivers/STM32G4xx_HAL_Driver/Src/stm32g4xx_hal_pwr_ex.c ****   * @}
  78:Drivers/STM32G4xx_HAL_Driver/Src/stm32g4xx_hal_pwr_ex.c ****   */
  79:Drivers/STM32G4xx_HAL_Driver/Src/stm32g4xx_hal_pwr_ex.c **** 
  80:Drivers/STM32G4xx_HAL_Driver/Src/stm32g4xx_hal_pwr_ex.c **** 
  81:Drivers/STM32G4xx_HAL_Driver/Src/stm32g4xx_hal_pwr_ex.c **** 
  82:Drivers/STM32G4xx_HAL_Driver/Src/stm32g4xx_hal_pwr_ex.c **** /* Private macro -------------------------------------------------------------*/
  83:Drivers/STM32G4xx_HAL_Driver/Src/stm32g4xx_hal_pwr_ex.c **** /* Private variables ---------------------------------------------------------*/
  84:Drivers/STM32G4xx_HAL_Driver/Src/stm32g4xx_hal_pwr_ex.c **** /* Private function prototypes -----------------------------------------------*/
  85:Drivers/STM32G4xx_HAL_Driver/Src/stm32g4xx_hal_pwr_ex.c **** /* Exported functions --------------------------------------------------------*/
  86:Drivers/STM32G4xx_HAL_Driver/Src/stm32g4xx_hal_pwr_ex.c **** 
  87:Drivers/STM32G4xx_HAL_Driver/Src/stm32g4xx_hal_pwr_ex.c **** /** @defgroup PWREx_Exported_Functions PWR Extended Exported Functions
ARM GAS  /tmp/cc9EFiwU.s 			page 3


  88:Drivers/STM32G4xx_HAL_Driver/Src/stm32g4xx_hal_pwr_ex.c ****   * @{
  89:Drivers/STM32G4xx_HAL_Driver/Src/stm32g4xx_hal_pwr_ex.c ****   */
  90:Drivers/STM32G4xx_HAL_Driver/Src/stm32g4xx_hal_pwr_ex.c **** 
  91:Drivers/STM32G4xx_HAL_Driver/Src/stm32g4xx_hal_pwr_ex.c **** /** @defgroup PWREx_Exported_Functions_Group1 Extended Peripheral Control functions
  92:Drivers/STM32G4xx_HAL_Driver/Src/stm32g4xx_hal_pwr_ex.c ****   *  @brief   Extended Peripheral Control functions
  93:Drivers/STM32G4xx_HAL_Driver/Src/stm32g4xx_hal_pwr_ex.c ****   *
  94:Drivers/STM32G4xx_HAL_Driver/Src/stm32g4xx_hal_pwr_ex.c **** @verbatim
  95:Drivers/STM32G4xx_HAL_Driver/Src/stm32g4xx_hal_pwr_ex.c ****  ===============================================================================
  96:Drivers/STM32G4xx_HAL_Driver/Src/stm32g4xx_hal_pwr_ex.c ****               ##### Extended Peripheral Initialization and de-initialization functions #####
  97:Drivers/STM32G4xx_HAL_Driver/Src/stm32g4xx_hal_pwr_ex.c ****  ===============================================================================
  98:Drivers/STM32G4xx_HAL_Driver/Src/stm32g4xx_hal_pwr_ex.c ****     [..]
  99:Drivers/STM32G4xx_HAL_Driver/Src/stm32g4xx_hal_pwr_ex.c **** 
 100:Drivers/STM32G4xx_HAL_Driver/Src/stm32g4xx_hal_pwr_ex.c **** @endverbatim
 101:Drivers/STM32G4xx_HAL_Driver/Src/stm32g4xx_hal_pwr_ex.c ****   * @{
 102:Drivers/STM32G4xx_HAL_Driver/Src/stm32g4xx_hal_pwr_ex.c ****   */
 103:Drivers/STM32G4xx_HAL_Driver/Src/stm32g4xx_hal_pwr_ex.c **** 
 104:Drivers/STM32G4xx_HAL_Driver/Src/stm32g4xx_hal_pwr_ex.c **** 
 105:Drivers/STM32G4xx_HAL_Driver/Src/stm32g4xx_hal_pwr_ex.c **** /**
 106:Drivers/STM32G4xx_HAL_Driver/Src/stm32g4xx_hal_pwr_ex.c ****   * @brief Return Voltage Scaling Range.
 107:Drivers/STM32G4xx_HAL_Driver/Src/stm32g4xx_hal_pwr_ex.c ****   * @retval VOS bit field (PWR_REGULATOR_VOLTAGE_SCALE1 or PWR_REGULATOR_VOLTAGE_SCALE2
 108:Drivers/STM32G4xx_HAL_Driver/Src/stm32g4xx_hal_pwr_ex.c ****   *         or PWR_REGULATOR_VOLTAGE_SCALE1_BOOST when applicable)
 109:Drivers/STM32G4xx_HAL_Driver/Src/stm32g4xx_hal_pwr_ex.c ****   */
 110:Drivers/STM32G4xx_HAL_Driver/Src/stm32g4xx_hal_pwr_ex.c **** uint32_t HAL_PWREx_GetVoltageRange(void)
 111:Drivers/STM32G4xx_HAL_Driver/Src/stm32g4xx_hal_pwr_ex.c **** {
  29              		.loc 1 111 1 view -0
  30              		.cfi_startproc
  31              		@ args = 0, pretend = 0, frame = 0
  32              		@ frame_needed = 0, uses_anonymous_args = 0
  33              		@ link register save eliminated.
 112:Drivers/STM32G4xx_HAL_Driver/Src/stm32g4xx_hal_pwr_ex.c ****   if (READ_BIT(PWR->CR1, PWR_CR1_VOS) == PWR_REGULATOR_VOLTAGE_SCALE2)
  34              		.loc 1 112 3 view .LVU1
  35              		.loc 1 112 7 is_stmt 0 view .LVU2
  36 0000 0A4B     		ldr	r3, .L6
  37 0002 1B68     		ldr	r3, [r3]
  38 0004 03F4C063 		and	r3, r3, #1536
  39              		.loc 1 112 6 view .LVU3
  40 0008 B3F5806F 		cmp	r3, #1024
  41 000c 0AD0     		beq	.L3
 113:Drivers/STM32G4xx_HAL_Driver/Src/stm32g4xx_hal_pwr_ex.c ****   {
 114:Drivers/STM32G4xx_HAL_Driver/Src/stm32g4xx_hal_pwr_ex.c ****     return PWR_REGULATOR_VOLTAGE_SCALE2;
 115:Drivers/STM32G4xx_HAL_Driver/Src/stm32g4xx_hal_pwr_ex.c ****   }
 116:Drivers/STM32G4xx_HAL_Driver/Src/stm32g4xx_hal_pwr_ex.c ****   else if (READ_BIT(PWR->CR5, PWR_CR5_R1MODE) == PWR_CR5_R1MODE)
  42              		.loc 1 116 8 is_stmt 1 view .LVU4
  43              		.loc 1 116 12 is_stmt 0 view .LVU5
  44 000e 074B     		ldr	r3, .L6
  45 0010 D3F88030 		ldr	r3, [r3, #128]
  46              		.loc 1 116 11 view .LVU6
  47 0014 13F4807F 		tst	r3, #256
  48 0018 01D1     		bne	.L5
 117:Drivers/STM32G4xx_HAL_Driver/Src/stm32g4xx_hal_pwr_ex.c ****   {
 118:Drivers/STM32G4xx_HAL_Driver/Src/stm32g4xx_hal_pwr_ex.c ****     /* PWR_CR5_R1MODE bit set means that Range 1 Boost is disabled */
 119:Drivers/STM32G4xx_HAL_Driver/Src/stm32g4xx_hal_pwr_ex.c ****     return PWR_REGULATOR_VOLTAGE_SCALE1;
 120:Drivers/STM32G4xx_HAL_Driver/Src/stm32g4xx_hal_pwr_ex.c ****   }
 121:Drivers/STM32G4xx_HAL_Driver/Src/stm32g4xx_hal_pwr_ex.c ****   else
 122:Drivers/STM32G4xx_HAL_Driver/Src/stm32g4xx_hal_pwr_ex.c ****   {
 123:Drivers/STM32G4xx_HAL_Driver/Src/stm32g4xx_hal_pwr_ex.c ****     return PWR_REGULATOR_VOLTAGE_SCALE1_BOOST;
  49              		.loc 1 123 12 view .LVU7
ARM GAS  /tmp/cc9EFiwU.s 			page 4


  50 001a 0020     		movs	r0, #0
 124:Drivers/STM32G4xx_HAL_Driver/Src/stm32g4xx_hal_pwr_ex.c ****   }
 125:Drivers/STM32G4xx_HAL_Driver/Src/stm32g4xx_hal_pwr_ex.c **** }
  51              		.loc 1 125 1 view .LVU8
  52 001c 7047     		bx	lr
  53              	.L5:
 119:Drivers/STM32G4xx_HAL_Driver/Src/stm32g4xx_hal_pwr_ex.c ****   }
  54              		.loc 1 119 12 view .LVU9
  55 001e 4FF40070 		mov	r0, #512
  56 0022 7047     		bx	lr
  57              	.L3:
 114:Drivers/STM32G4xx_HAL_Driver/Src/stm32g4xx_hal_pwr_ex.c ****   }
  58              		.loc 1 114 12 view .LVU10
  59 0024 4FF48060 		mov	r0, #1024
  60 0028 7047     		bx	lr
  61              	.L7:
  62 002a 00BF     		.align	2
  63              	.L6:
  64 002c 00700040 		.word	1073770496
  65              		.cfi_endproc
  66              	.LFE325:
  68              		.section	.text.HAL_PWREx_ControlVoltageScaling,"ax",%progbits
  69              		.align	1
  70              		.global	HAL_PWREx_ControlVoltageScaling
  71              		.syntax unified
  72              		.thumb
  73              		.thumb_func
  74              		.fpu fpv4-sp-d16
  76              	HAL_PWREx_ControlVoltageScaling:
  77              	.LVL0:
  78              	.LFB326:
 126:Drivers/STM32G4xx_HAL_Driver/Src/stm32g4xx_hal_pwr_ex.c **** 
 127:Drivers/STM32G4xx_HAL_Driver/Src/stm32g4xx_hal_pwr_ex.c **** 
 128:Drivers/STM32G4xx_HAL_Driver/Src/stm32g4xx_hal_pwr_ex.c **** 
 129:Drivers/STM32G4xx_HAL_Driver/Src/stm32g4xx_hal_pwr_ex.c **** /**
 130:Drivers/STM32G4xx_HAL_Driver/Src/stm32g4xx_hal_pwr_ex.c ****   * @brief Configure the main internal regulator output voltage.
 131:Drivers/STM32G4xx_HAL_Driver/Src/stm32g4xx_hal_pwr_ex.c ****   * @param  VoltageScaling: specifies the regulator output voltage to achieve
 132:Drivers/STM32G4xx_HAL_Driver/Src/stm32g4xx_hal_pwr_ex.c ****   *         a tradeoff between performance and power consumption.
 133:Drivers/STM32G4xx_HAL_Driver/Src/stm32g4xx_hal_pwr_ex.c ****   *          This parameter can be one of the following values:
 134:Drivers/STM32G4xx_HAL_Driver/Src/stm32g4xx_hal_pwr_ex.c ****   *            @arg @ref PWR_REGULATOR_VOLTAGE_SCALE1_BOOST when available, Regulator voltage outpu
 135:Drivers/STM32G4xx_HAL_Driver/Src/stm32g4xx_hal_pwr_ex.c ****   *                                                typical output voltage at 1.28 V,
 136:Drivers/STM32G4xx_HAL_Driver/Src/stm32g4xx_hal_pwr_ex.c ****   *                                                system frequency up to 170 MHz.
 137:Drivers/STM32G4xx_HAL_Driver/Src/stm32g4xx_hal_pwr_ex.c ****   *            @arg @ref PWR_REGULATOR_VOLTAGE_SCALE1 Regulator voltage output range 1 mode,
 138:Drivers/STM32G4xx_HAL_Driver/Src/stm32g4xx_hal_pwr_ex.c ****   *                                                typical output voltage at 1.2 V,
 139:Drivers/STM32G4xx_HAL_Driver/Src/stm32g4xx_hal_pwr_ex.c ****   *                                                system frequency up to 150 MHz.
 140:Drivers/STM32G4xx_HAL_Driver/Src/stm32g4xx_hal_pwr_ex.c ****   *            @arg @ref PWR_REGULATOR_VOLTAGE_SCALE2 Regulator voltage output range 2 mode,
 141:Drivers/STM32G4xx_HAL_Driver/Src/stm32g4xx_hal_pwr_ex.c ****   *                                                typical output voltage at 1.0 V,
 142:Drivers/STM32G4xx_HAL_Driver/Src/stm32g4xx_hal_pwr_ex.c ****   *                                                system frequency up to 26 MHz.
 143:Drivers/STM32G4xx_HAL_Driver/Src/stm32g4xx_hal_pwr_ex.c ****   * @note  When moving from Range 1 to Range 2, the system frequency must be decreased to
 144:Drivers/STM32G4xx_HAL_Driver/Src/stm32g4xx_hal_pwr_ex.c ****   *        a value below 26 MHz before calling HAL_PWREx_ControlVoltageScaling() API.
 145:Drivers/STM32G4xx_HAL_Driver/Src/stm32g4xx_hal_pwr_ex.c ****   *        When moving from Range 2 to Range 1, the system frequency can be increased to
 146:Drivers/STM32G4xx_HAL_Driver/Src/stm32g4xx_hal_pwr_ex.c ****   *        a value up to 150 MHz after calling HAL_PWREx_ControlVoltageScaling() API.
 147:Drivers/STM32G4xx_HAL_Driver/Src/stm32g4xx_hal_pwr_ex.c ****   *        When moving from Range 1 to Boost Mode Range 1, the system frequency can be increased to
 148:Drivers/STM32G4xx_HAL_Driver/Src/stm32g4xx_hal_pwr_ex.c ****   *        a value up to 170 MHz after calling HAL_PWREx_ControlVoltageScaling() API.
 149:Drivers/STM32G4xx_HAL_Driver/Src/stm32g4xx_hal_pwr_ex.c ****   * @note  When moving from Range 2 to Range 1, the API waits for VOSF flag to be
 150:Drivers/STM32G4xx_HAL_Driver/Src/stm32g4xx_hal_pwr_ex.c ****   *        cleared before returning the status. If the flag is not cleared within
 151:Drivers/STM32G4xx_HAL_Driver/Src/stm32g4xx_hal_pwr_ex.c ****   *        50 microseconds, HAL_TIMEOUT status is reported.
ARM GAS  /tmp/cc9EFiwU.s 			page 5


 152:Drivers/STM32G4xx_HAL_Driver/Src/stm32g4xx_hal_pwr_ex.c ****   * @retval HAL Status
 153:Drivers/STM32G4xx_HAL_Driver/Src/stm32g4xx_hal_pwr_ex.c ****   */
 154:Drivers/STM32G4xx_HAL_Driver/Src/stm32g4xx_hal_pwr_ex.c **** HAL_StatusTypeDef HAL_PWREx_ControlVoltageScaling(uint32_t VoltageScaling)
 155:Drivers/STM32G4xx_HAL_Driver/Src/stm32g4xx_hal_pwr_ex.c **** {
  79              		.loc 1 155 1 is_stmt 1 view -0
  80              		.cfi_startproc
  81              		@ args = 0, pretend = 0, frame = 0
  82              		@ frame_needed = 0, uses_anonymous_args = 0
  83              		@ link register save eliminated.
 156:Drivers/STM32G4xx_HAL_Driver/Src/stm32g4xx_hal_pwr_ex.c ****   uint32_t wait_loop_index;
  84              		.loc 1 156 3 view .LVU12
 157:Drivers/STM32G4xx_HAL_Driver/Src/stm32g4xx_hal_pwr_ex.c **** 
 158:Drivers/STM32G4xx_HAL_Driver/Src/stm32g4xx_hal_pwr_ex.c ****   assert_param(IS_PWR_VOLTAGE_SCALING_RANGE(VoltageScaling));
  85              		.loc 1 158 3 view .LVU13
 159:Drivers/STM32G4xx_HAL_Driver/Src/stm32g4xx_hal_pwr_ex.c **** 
 160:Drivers/STM32G4xx_HAL_Driver/Src/stm32g4xx_hal_pwr_ex.c ****   if (VoltageScaling == PWR_REGULATOR_VOLTAGE_SCALE1_BOOST)
  86              		.loc 1 160 3 view .LVU14
  87              		.loc 1 160 6 is_stmt 0 view .LVU15
  88 0000 0028     		cmp	r0, #0
  89 0002 36D1     		bne	.L9
 161:Drivers/STM32G4xx_HAL_Driver/Src/stm32g4xx_hal_pwr_ex.c ****   {
 162:Drivers/STM32G4xx_HAL_Driver/Src/stm32g4xx_hal_pwr_ex.c ****     /* If current range is range 2 */
 163:Drivers/STM32G4xx_HAL_Driver/Src/stm32g4xx_hal_pwr_ex.c ****     if (READ_BIT(PWR->CR1, PWR_CR1_VOS) == PWR_REGULATOR_VOLTAGE_SCALE2)
  90              		.loc 1 163 5 is_stmt 1 view .LVU16
  91              		.loc 1 163 9 is_stmt 0 view .LVU17
  92 0004 3E4B     		ldr	r3, .L25
  93 0006 1B68     		ldr	r3, [r3]
  94 0008 03F4C063 		and	r3, r3, #1536
  95              		.loc 1 163 8 view .LVU18
  96 000c B3F5806F 		cmp	r3, #1024
  97 0010 08D0     		beq	.L22
 164:Drivers/STM32G4xx_HAL_Driver/Src/stm32g4xx_hal_pwr_ex.c ****     {
 165:Drivers/STM32G4xx_HAL_Driver/Src/stm32g4xx_hal_pwr_ex.c ****       /* Make sure Range 1 Boost is enabled */
 166:Drivers/STM32G4xx_HAL_Driver/Src/stm32g4xx_hal_pwr_ex.c ****       CLEAR_BIT(PWR->CR5, PWR_CR5_R1MODE);
 167:Drivers/STM32G4xx_HAL_Driver/Src/stm32g4xx_hal_pwr_ex.c **** 
 168:Drivers/STM32G4xx_HAL_Driver/Src/stm32g4xx_hal_pwr_ex.c ****       /* Set Range 1 */
 169:Drivers/STM32G4xx_HAL_Driver/Src/stm32g4xx_hal_pwr_ex.c ****       MODIFY_REG(PWR->CR1, PWR_CR1_VOS, PWR_REGULATOR_VOLTAGE_SCALE1);
 170:Drivers/STM32G4xx_HAL_Driver/Src/stm32g4xx_hal_pwr_ex.c **** 
 171:Drivers/STM32G4xx_HAL_Driver/Src/stm32g4xx_hal_pwr_ex.c ****       /* Wait until VOSF is cleared */
 172:Drivers/STM32G4xx_HAL_Driver/Src/stm32g4xx_hal_pwr_ex.c ****       wait_loop_index = ((PWR_FLAG_SETTING_DELAY_US * SystemCoreClock) / 1000000U) + 1U;
 173:Drivers/STM32G4xx_HAL_Driver/Src/stm32g4xx_hal_pwr_ex.c ****       while ((HAL_IS_BIT_SET(PWR->SR2, PWR_SR2_VOSF)) && (wait_loop_index != 0U))
 174:Drivers/STM32G4xx_HAL_Driver/Src/stm32g4xx_hal_pwr_ex.c ****       {
 175:Drivers/STM32G4xx_HAL_Driver/Src/stm32g4xx_hal_pwr_ex.c ****         wait_loop_index--;
 176:Drivers/STM32G4xx_HAL_Driver/Src/stm32g4xx_hal_pwr_ex.c ****       }
 177:Drivers/STM32G4xx_HAL_Driver/Src/stm32g4xx_hal_pwr_ex.c ****       if (HAL_IS_BIT_SET(PWR->SR2, PWR_SR2_VOSF))
 178:Drivers/STM32G4xx_HAL_Driver/Src/stm32g4xx_hal_pwr_ex.c ****       {
 179:Drivers/STM32G4xx_HAL_Driver/Src/stm32g4xx_hal_pwr_ex.c ****         return HAL_TIMEOUT;
 180:Drivers/STM32G4xx_HAL_Driver/Src/stm32g4xx_hal_pwr_ex.c ****       }
 181:Drivers/STM32G4xx_HAL_Driver/Src/stm32g4xx_hal_pwr_ex.c ****     }
 182:Drivers/STM32G4xx_HAL_Driver/Src/stm32g4xx_hal_pwr_ex.c ****     /* If current range is range 1 normal or boost mode */
 183:Drivers/STM32G4xx_HAL_Driver/Src/stm32g4xx_hal_pwr_ex.c ****     else
 184:Drivers/STM32G4xx_HAL_Driver/Src/stm32g4xx_hal_pwr_ex.c ****     {
 185:Drivers/STM32G4xx_HAL_Driver/Src/stm32g4xx_hal_pwr_ex.c ****       /* Enable Range 1 Boost (no issue if bit already reset) */
 186:Drivers/STM32G4xx_HAL_Driver/Src/stm32g4xx_hal_pwr_ex.c ****       CLEAR_BIT(PWR->CR5, PWR_CR5_R1MODE);
  98              		.loc 1 186 7 is_stmt 1 view .LVU19
  99 0012 3B4A     		ldr	r2, .L25
 100 0014 D2F88030 		ldr	r3, [r2, #128]
ARM GAS  /tmp/cc9EFiwU.s 			page 6


 101 0018 23F48073 		bic	r3, r3, #256
 102 001c C2F88030 		str	r3, [r2, #128]
 187:Drivers/STM32G4xx_HAL_Driver/Src/stm32g4xx_hal_pwr_ex.c ****     }
 188:Drivers/STM32G4xx_HAL_Driver/Src/stm32g4xx_hal_pwr_ex.c ****   }
 189:Drivers/STM32G4xx_HAL_Driver/Src/stm32g4xx_hal_pwr_ex.c ****   else if (VoltageScaling == PWR_REGULATOR_VOLTAGE_SCALE1)
 190:Drivers/STM32G4xx_HAL_Driver/Src/stm32g4xx_hal_pwr_ex.c ****   {
 191:Drivers/STM32G4xx_HAL_Driver/Src/stm32g4xx_hal_pwr_ex.c ****     /* If current range is range 2 */
 192:Drivers/STM32G4xx_HAL_Driver/Src/stm32g4xx_hal_pwr_ex.c ****     if (READ_BIT(PWR->CR1, PWR_CR1_VOS) == PWR_REGULATOR_VOLTAGE_SCALE2)
 193:Drivers/STM32G4xx_HAL_Driver/Src/stm32g4xx_hal_pwr_ex.c ****     {
 194:Drivers/STM32G4xx_HAL_Driver/Src/stm32g4xx_hal_pwr_ex.c ****       /* Make sure Range 1 Boost is disabled */
 195:Drivers/STM32G4xx_HAL_Driver/Src/stm32g4xx_hal_pwr_ex.c ****       SET_BIT(PWR->CR5, PWR_CR5_R1MODE);
 196:Drivers/STM32G4xx_HAL_Driver/Src/stm32g4xx_hal_pwr_ex.c **** 
 197:Drivers/STM32G4xx_HAL_Driver/Src/stm32g4xx_hal_pwr_ex.c ****       /* Set Range 1 */
 198:Drivers/STM32G4xx_HAL_Driver/Src/stm32g4xx_hal_pwr_ex.c ****       MODIFY_REG(PWR->CR1, PWR_CR1_VOS, PWR_REGULATOR_VOLTAGE_SCALE1);
 199:Drivers/STM32G4xx_HAL_Driver/Src/stm32g4xx_hal_pwr_ex.c **** 
 200:Drivers/STM32G4xx_HAL_Driver/Src/stm32g4xx_hal_pwr_ex.c ****       /* Wait until VOSF is cleared */
 201:Drivers/STM32G4xx_HAL_Driver/Src/stm32g4xx_hal_pwr_ex.c ****       wait_loop_index = ((PWR_FLAG_SETTING_DELAY_US * SystemCoreClock) / 1000000U) + 1U;
 202:Drivers/STM32G4xx_HAL_Driver/Src/stm32g4xx_hal_pwr_ex.c ****       while ((HAL_IS_BIT_SET(PWR->SR2, PWR_SR2_VOSF)) && (wait_loop_index != 0U))
 203:Drivers/STM32G4xx_HAL_Driver/Src/stm32g4xx_hal_pwr_ex.c ****       {
 204:Drivers/STM32G4xx_HAL_Driver/Src/stm32g4xx_hal_pwr_ex.c ****         wait_loop_index--;
 205:Drivers/STM32G4xx_HAL_Driver/Src/stm32g4xx_hal_pwr_ex.c ****       }
 206:Drivers/STM32G4xx_HAL_Driver/Src/stm32g4xx_hal_pwr_ex.c ****       if (HAL_IS_BIT_SET(PWR->SR2, PWR_SR2_VOSF))
 207:Drivers/STM32G4xx_HAL_Driver/Src/stm32g4xx_hal_pwr_ex.c ****       {
 208:Drivers/STM32G4xx_HAL_Driver/Src/stm32g4xx_hal_pwr_ex.c ****         return HAL_TIMEOUT;
 209:Drivers/STM32G4xx_HAL_Driver/Src/stm32g4xx_hal_pwr_ex.c ****       }
 210:Drivers/STM32G4xx_HAL_Driver/Src/stm32g4xx_hal_pwr_ex.c ****     }
 211:Drivers/STM32G4xx_HAL_Driver/Src/stm32g4xx_hal_pwr_ex.c ****      /* If current range is range 1 normal or boost mode */
 212:Drivers/STM32G4xx_HAL_Driver/Src/stm32g4xx_hal_pwr_ex.c ****     else
 213:Drivers/STM32G4xx_HAL_Driver/Src/stm32g4xx_hal_pwr_ex.c ****     {
 214:Drivers/STM32G4xx_HAL_Driver/Src/stm32g4xx_hal_pwr_ex.c ****       /* Disable Range 1 Boost (no issue if bit already set) */
 215:Drivers/STM32G4xx_HAL_Driver/Src/stm32g4xx_hal_pwr_ex.c ****       SET_BIT(PWR->CR5, PWR_CR5_R1MODE);
 216:Drivers/STM32G4xx_HAL_Driver/Src/stm32g4xx_hal_pwr_ex.c ****     }
 217:Drivers/STM32G4xx_HAL_Driver/Src/stm32g4xx_hal_pwr_ex.c ****   }
 218:Drivers/STM32G4xx_HAL_Driver/Src/stm32g4xx_hal_pwr_ex.c ****   else
 219:Drivers/STM32G4xx_HAL_Driver/Src/stm32g4xx_hal_pwr_ex.c ****   {
 220:Drivers/STM32G4xx_HAL_Driver/Src/stm32g4xx_hal_pwr_ex.c ****     /* Set Range 2 */
 221:Drivers/STM32G4xx_HAL_Driver/Src/stm32g4xx_hal_pwr_ex.c ****     MODIFY_REG(PWR->CR1, PWR_CR1_VOS, PWR_REGULATOR_VOLTAGE_SCALE2);
 222:Drivers/STM32G4xx_HAL_Driver/Src/stm32g4xx_hal_pwr_ex.c ****     /* No need to wait for VOSF to be cleared for this transition */
 223:Drivers/STM32G4xx_HAL_Driver/Src/stm32g4xx_hal_pwr_ex.c ****     /* PWR_CR5_R1MODE bit setting has no effect in Range 2        */
 224:Drivers/STM32G4xx_HAL_Driver/Src/stm32g4xx_hal_pwr_ex.c ****   }
 225:Drivers/STM32G4xx_HAL_Driver/Src/stm32g4xx_hal_pwr_ex.c **** 
 226:Drivers/STM32G4xx_HAL_Driver/Src/stm32g4xx_hal_pwr_ex.c ****   return HAL_OK;
 103              		.loc 1 226 10 is_stmt 0 view .LVU20
 104 0020 0020     		movs	r0, #0
 105              	.LVL1:
 106              		.loc 1 226 10 view .LVU21
 107 0022 7047     		bx	lr
 108              	.LVL2:
 109              	.L22:
 166:Drivers/STM32G4xx_HAL_Driver/Src/stm32g4xx_hal_pwr_ex.c **** 
 110              		.loc 1 166 7 is_stmt 1 view .LVU22
 111 0024 364A     		ldr	r2, .L25
 112 0026 D2F88030 		ldr	r3, [r2, #128]
 113 002a 23F48073 		bic	r3, r3, #256
 114 002e C2F88030 		str	r3, [r2, #128]
 169:Drivers/STM32G4xx_HAL_Driver/Src/stm32g4xx_hal_pwr_ex.c **** 
 115              		.loc 1 169 7 view .LVU23
ARM GAS  /tmp/cc9EFiwU.s 			page 7


 116 0032 1368     		ldr	r3, [r2]
 117 0034 23F4C063 		bic	r3, r3, #1536
 118 0038 43F40073 		orr	r3, r3, #512
 119 003c 1360     		str	r3, [r2]
 172:Drivers/STM32G4xx_HAL_Driver/Src/stm32g4xx_hal_pwr_ex.c ****       while ((HAL_IS_BIT_SET(PWR->SR2, PWR_SR2_VOSF)) && (wait_loop_index != 0U))
 120              		.loc 1 172 7 view .LVU24
 172:Drivers/STM32G4xx_HAL_Driver/Src/stm32g4xx_hal_pwr_ex.c ****       while ((HAL_IS_BIT_SET(PWR->SR2, PWR_SR2_VOSF)) && (wait_loop_index != 0U))
 121              		.loc 1 172 53 is_stmt 0 view .LVU25
 122 003e 314B     		ldr	r3, .L25+4
 123 0040 1A68     		ldr	r2, [r3]
 124 0042 3223     		movs	r3, #50
 125 0044 03FB02F3 		mul	r3, r3, r2
 172:Drivers/STM32G4xx_HAL_Driver/Src/stm32g4xx_hal_pwr_ex.c ****       while ((HAL_IS_BIT_SET(PWR->SR2, PWR_SR2_VOSF)) && (wait_loop_index != 0U))
 126              		.loc 1 172 72 view .LVU26
 127 0048 2F4A     		ldr	r2, .L25+8
 128 004a A2FB0323 		umull	r2, r3, r2, r3
 129 004e 9B0C     		lsrs	r3, r3, #18
 172:Drivers/STM32G4xx_HAL_Driver/Src/stm32g4xx_hal_pwr_ex.c ****       while ((HAL_IS_BIT_SET(PWR->SR2, PWR_SR2_VOSF)) && (wait_loop_index != 0U))
 130              		.loc 1 172 23 view .LVU27
 131 0050 0133     		adds	r3, r3, #1
 132              	.LVL3:
 173:Drivers/STM32G4xx_HAL_Driver/Src/stm32g4xx_hal_pwr_ex.c ****       {
 133              		.loc 1 173 7 is_stmt 1 view .LVU28
 173:Drivers/STM32G4xx_HAL_Driver/Src/stm32g4xx_hal_pwr_ex.c ****       {
 134              		.loc 1 173 13 is_stmt 0 view .LVU29
 135 0052 00E0     		b	.L11
 136              	.L13:
 175:Drivers/STM32G4xx_HAL_Driver/Src/stm32g4xx_hal_pwr_ex.c ****       }
 137              		.loc 1 175 9 is_stmt 1 view .LVU30
 175:Drivers/STM32G4xx_HAL_Driver/Src/stm32g4xx_hal_pwr_ex.c ****       }
 138              		.loc 1 175 24 is_stmt 0 view .LVU31
 139 0054 013B     		subs	r3, r3, #1
 140              	.LVL4:
 141              	.L11:
 173:Drivers/STM32G4xx_HAL_Driver/Src/stm32g4xx_hal_pwr_ex.c ****       {
 142              		.loc 1 173 15 view .LVU32
 143 0056 2A4A     		ldr	r2, .L25
 144 0058 5269     		ldr	r2, [r2, #20]
 173:Drivers/STM32G4xx_HAL_Driver/Src/stm32g4xx_hal_pwr_ex.c ****       {
 145              		.loc 1 173 13 view .LVU33
 146 005a 12F4806F 		tst	r2, #1024
 147 005e 01D0     		beq	.L12
 173:Drivers/STM32G4xx_HAL_Driver/Src/stm32g4xx_hal_pwr_ex.c ****       {
 148              		.loc 1 173 55 discriminator 1 view .LVU34
 149 0060 002B     		cmp	r3, #0
 150 0062 F7D1     		bne	.L13
 151              	.L12:
 177:Drivers/STM32G4xx_HAL_Driver/Src/stm32g4xx_hal_pwr_ex.c ****       {
 152              		.loc 1 177 7 is_stmt 1 view .LVU35
 177:Drivers/STM32G4xx_HAL_Driver/Src/stm32g4xx_hal_pwr_ex.c ****       {
 153              		.loc 1 177 11 is_stmt 0 view .LVU36
 154 0064 264B     		ldr	r3, .L25
 155              	.LVL5:
 177:Drivers/STM32G4xx_HAL_Driver/Src/stm32g4xx_hal_pwr_ex.c ****       {
 156              		.loc 1 177 11 view .LVU37
 157 0066 5B69     		ldr	r3, [r3, #20]
 177:Drivers/STM32G4xx_HAL_Driver/Src/stm32g4xx_hal_pwr_ex.c ****       {
ARM GAS  /tmp/cc9EFiwU.s 			page 8


 158              		.loc 1 177 10 view .LVU38
 159 0068 13F4806F 		tst	r3, #1024
 160 006c 44D1     		bne	.L20
 161              		.loc 1 226 10 view .LVU39
 162 006e 0020     		movs	r0, #0
 163              	.LVL6:
 164              		.loc 1 226 10 view .LVU40
 165 0070 7047     		bx	lr
 166              	.LVL7:
 167              	.L9:
 189:Drivers/STM32G4xx_HAL_Driver/Src/stm32g4xx_hal_pwr_ex.c ****   {
 168              		.loc 1 189 8 is_stmt 1 view .LVU41
 189:Drivers/STM32G4xx_HAL_Driver/Src/stm32g4xx_hal_pwr_ex.c ****   {
 169              		.loc 1 189 11 is_stmt 0 view .LVU42
 170 0072 B0F5007F 		cmp	r0, #512
 171 0076 08D0     		beq	.L23
 221:Drivers/STM32G4xx_HAL_Driver/Src/stm32g4xx_hal_pwr_ex.c ****     /* No need to wait for VOSF to be cleared for this transition */
 172              		.loc 1 221 5 is_stmt 1 view .LVU43
 173 0078 214A     		ldr	r2, .L25
 174 007a 1368     		ldr	r3, [r2]
 175 007c 23F4C063 		bic	r3, r3, #1536
 176 0080 43F48063 		orr	r3, r3, #1024
 177 0084 1360     		str	r3, [r2]
 178              		.loc 1 226 10 is_stmt 0 view .LVU44
 179 0086 0020     		movs	r0, #0
 180              	.LVL8:
 181              		.loc 1 226 10 view .LVU45
 182 0088 7047     		bx	lr
 183              	.LVL9:
 184              	.L23:
 192:Drivers/STM32G4xx_HAL_Driver/Src/stm32g4xx_hal_pwr_ex.c ****     {
 185              		.loc 1 192 5 is_stmt 1 view .LVU46
 192:Drivers/STM32G4xx_HAL_Driver/Src/stm32g4xx_hal_pwr_ex.c ****     {
 186              		.loc 1 192 9 is_stmt 0 view .LVU47
 187 008a 1D4B     		ldr	r3, .L25
 188 008c 1B68     		ldr	r3, [r3]
 189 008e 03F4C063 		and	r3, r3, #1536
 192:Drivers/STM32G4xx_HAL_Driver/Src/stm32g4xx_hal_pwr_ex.c ****     {
 190              		.loc 1 192 8 view .LVU48
 191 0092 B3F5806F 		cmp	r3, #1024
 192 0096 08D0     		beq	.L24
 215:Drivers/STM32G4xx_HAL_Driver/Src/stm32g4xx_hal_pwr_ex.c ****     }
 193              		.loc 1 215 7 is_stmt 1 view .LVU49
 194 0098 194A     		ldr	r2, .L25
 195 009a D2F88030 		ldr	r3, [r2, #128]
 196 009e 43F48073 		orr	r3, r3, #256
 197 00a2 C2F88030 		str	r3, [r2, #128]
 198              		.loc 1 226 10 is_stmt 0 view .LVU50
 199 00a6 0020     		movs	r0, #0
 200              	.LVL10:
 201              		.loc 1 226 10 view .LVU51
 202 00a8 7047     		bx	lr
 203              	.LVL11:
 204              	.L24:
 195:Drivers/STM32G4xx_HAL_Driver/Src/stm32g4xx_hal_pwr_ex.c **** 
 205              		.loc 1 195 7 is_stmt 1 view .LVU52
 206 00aa 154A     		ldr	r2, .L25
ARM GAS  /tmp/cc9EFiwU.s 			page 9


 207 00ac D2F88030 		ldr	r3, [r2, #128]
 208 00b0 43F48073 		orr	r3, r3, #256
 209 00b4 C2F88030 		str	r3, [r2, #128]
 198:Drivers/STM32G4xx_HAL_Driver/Src/stm32g4xx_hal_pwr_ex.c **** 
 210              		.loc 1 198 7 view .LVU53
 211 00b8 1368     		ldr	r3, [r2]
 212 00ba 23F4C063 		bic	r3, r3, #1536
 213 00be 43F40073 		orr	r3, r3, #512
 214 00c2 1360     		str	r3, [r2]
 201:Drivers/STM32G4xx_HAL_Driver/Src/stm32g4xx_hal_pwr_ex.c ****       while ((HAL_IS_BIT_SET(PWR->SR2, PWR_SR2_VOSF)) && (wait_loop_index != 0U))
 215              		.loc 1 201 7 view .LVU54
 201:Drivers/STM32G4xx_HAL_Driver/Src/stm32g4xx_hal_pwr_ex.c ****       while ((HAL_IS_BIT_SET(PWR->SR2, PWR_SR2_VOSF)) && (wait_loop_index != 0U))
 216              		.loc 1 201 53 is_stmt 0 view .LVU55
 217 00c4 0F4B     		ldr	r3, .L25+4
 218 00c6 1A68     		ldr	r2, [r3]
 219 00c8 3223     		movs	r3, #50
 220 00ca 03FB02F3 		mul	r3, r3, r2
 201:Drivers/STM32G4xx_HAL_Driver/Src/stm32g4xx_hal_pwr_ex.c ****       while ((HAL_IS_BIT_SET(PWR->SR2, PWR_SR2_VOSF)) && (wait_loop_index != 0U))
 221              		.loc 1 201 72 view .LVU56
 222 00ce 0E4A     		ldr	r2, .L25+8
 223 00d0 A2FB0323 		umull	r2, r3, r2, r3
 224 00d4 9B0C     		lsrs	r3, r3, #18
 201:Drivers/STM32G4xx_HAL_Driver/Src/stm32g4xx_hal_pwr_ex.c ****       while ((HAL_IS_BIT_SET(PWR->SR2, PWR_SR2_VOSF)) && (wait_loop_index != 0U))
 225              		.loc 1 201 23 view .LVU57
 226 00d6 0133     		adds	r3, r3, #1
 227              	.LVL12:
 202:Drivers/STM32G4xx_HAL_Driver/Src/stm32g4xx_hal_pwr_ex.c ****       {
 228              		.loc 1 202 7 is_stmt 1 view .LVU58
 202:Drivers/STM32G4xx_HAL_Driver/Src/stm32g4xx_hal_pwr_ex.c ****       {
 229              		.loc 1 202 13 is_stmt 0 view .LVU59
 230 00d8 00E0     		b	.L17
 231              	.L19:
 204:Drivers/STM32G4xx_HAL_Driver/Src/stm32g4xx_hal_pwr_ex.c ****       }
 232              		.loc 1 204 9 is_stmt 1 view .LVU60
 204:Drivers/STM32G4xx_HAL_Driver/Src/stm32g4xx_hal_pwr_ex.c ****       }
 233              		.loc 1 204 24 is_stmt 0 view .LVU61
 234 00da 013B     		subs	r3, r3, #1
 235              	.LVL13:
 236              	.L17:
 202:Drivers/STM32G4xx_HAL_Driver/Src/stm32g4xx_hal_pwr_ex.c ****       {
 237              		.loc 1 202 15 view .LVU62
 238 00dc 084A     		ldr	r2, .L25
 239 00de 5269     		ldr	r2, [r2, #20]
 202:Drivers/STM32G4xx_HAL_Driver/Src/stm32g4xx_hal_pwr_ex.c ****       {
 240              		.loc 1 202 13 view .LVU63
 241 00e0 12F4806F 		tst	r2, #1024
 242 00e4 01D0     		beq	.L18
 202:Drivers/STM32G4xx_HAL_Driver/Src/stm32g4xx_hal_pwr_ex.c ****       {
 243              		.loc 1 202 55 discriminator 1 view .LVU64
 244 00e6 002B     		cmp	r3, #0
 245 00e8 F7D1     		bne	.L19
 246              	.L18:
 206:Drivers/STM32G4xx_HAL_Driver/Src/stm32g4xx_hal_pwr_ex.c ****       {
 247              		.loc 1 206 7 is_stmt 1 view .LVU65
 206:Drivers/STM32G4xx_HAL_Driver/Src/stm32g4xx_hal_pwr_ex.c ****       {
 248              		.loc 1 206 11 is_stmt 0 view .LVU66
 249 00ea 054B     		ldr	r3, .L25
ARM GAS  /tmp/cc9EFiwU.s 			page 10


 250              	.LVL14:
 206:Drivers/STM32G4xx_HAL_Driver/Src/stm32g4xx_hal_pwr_ex.c ****       {
 251              		.loc 1 206 11 view .LVU67
 252 00ec 5B69     		ldr	r3, [r3, #20]
 206:Drivers/STM32G4xx_HAL_Driver/Src/stm32g4xx_hal_pwr_ex.c ****       {
 253              		.loc 1 206 10 view .LVU68
 254 00ee 13F4806F 		tst	r3, #1024
 255 00f2 03D1     		bne	.L21
 256              		.loc 1 226 10 view .LVU69
 257 00f4 0020     		movs	r0, #0
 258              	.LVL15:
 259              		.loc 1 226 10 view .LVU70
 260 00f6 7047     		bx	lr
 261              	.LVL16:
 262              	.L20:
 179:Drivers/STM32G4xx_HAL_Driver/Src/stm32g4xx_hal_pwr_ex.c ****       }
 263              		.loc 1 179 16 view .LVU71
 264 00f8 0320     		movs	r0, #3
 265              	.LVL17:
 179:Drivers/STM32G4xx_HAL_Driver/Src/stm32g4xx_hal_pwr_ex.c ****       }
 266              		.loc 1 179 16 view .LVU72
 267 00fa 7047     		bx	lr
 268              	.LVL18:
 269              	.L21:
 208:Drivers/STM32G4xx_HAL_Driver/Src/stm32g4xx_hal_pwr_ex.c ****       }
 270              		.loc 1 208 16 view .LVU73
 271 00fc 0320     		movs	r0, #3
 272              	.LVL19:
 227:Drivers/STM32G4xx_HAL_Driver/Src/stm32g4xx_hal_pwr_ex.c **** }
 273              		.loc 1 227 1 view .LVU74
 274 00fe 7047     		bx	lr
 275              	.L26:
 276              		.align	2
 277              	.L25:
 278 0100 00700040 		.word	1073770496
 279 0104 00000000 		.word	SystemCoreClock
 280 0108 83DE1B43 		.word	1125899907
 281              		.cfi_endproc
 282              	.LFE326:
 284              		.section	.text.HAL_PWREx_EnableBatteryCharging,"ax",%progbits
 285              		.align	1
 286              		.global	HAL_PWREx_EnableBatteryCharging
 287              		.syntax unified
 288              		.thumb
 289              		.thumb_func
 290              		.fpu fpv4-sp-d16
 292              	HAL_PWREx_EnableBatteryCharging:
 293              	.LVL20:
 294              	.LFB327:
 228:Drivers/STM32G4xx_HAL_Driver/Src/stm32g4xx_hal_pwr_ex.c **** 
 229:Drivers/STM32G4xx_HAL_Driver/Src/stm32g4xx_hal_pwr_ex.c **** 
 230:Drivers/STM32G4xx_HAL_Driver/Src/stm32g4xx_hal_pwr_ex.c **** /**
 231:Drivers/STM32G4xx_HAL_Driver/Src/stm32g4xx_hal_pwr_ex.c ****   * @brief Enable battery charging.
 232:Drivers/STM32G4xx_HAL_Driver/Src/stm32g4xx_hal_pwr_ex.c ****   *        When VDD is present, charge the external battery on VBAT thru an internal resistor.
 233:Drivers/STM32G4xx_HAL_Driver/Src/stm32g4xx_hal_pwr_ex.c ****   * @param  ResistorSelection: specifies the resistor impedance.
 234:Drivers/STM32G4xx_HAL_Driver/Src/stm32g4xx_hal_pwr_ex.c ****   *          This parameter can be one of the following values:
 235:Drivers/STM32G4xx_HAL_Driver/Src/stm32g4xx_hal_pwr_ex.c ****   *            @arg @ref PWR_BATTERY_CHARGING_RESISTOR_5     5 kOhms resistor
ARM GAS  /tmp/cc9EFiwU.s 			page 11


 236:Drivers/STM32G4xx_HAL_Driver/Src/stm32g4xx_hal_pwr_ex.c ****   *            @arg @ref PWR_BATTERY_CHARGING_RESISTOR_1_5 1.5 kOhms resistor
 237:Drivers/STM32G4xx_HAL_Driver/Src/stm32g4xx_hal_pwr_ex.c ****   * @retval None
 238:Drivers/STM32G4xx_HAL_Driver/Src/stm32g4xx_hal_pwr_ex.c ****   */
 239:Drivers/STM32G4xx_HAL_Driver/Src/stm32g4xx_hal_pwr_ex.c **** void HAL_PWREx_EnableBatteryCharging(uint32_t ResistorSelection)
 240:Drivers/STM32G4xx_HAL_Driver/Src/stm32g4xx_hal_pwr_ex.c **** {
 295              		.loc 1 240 1 is_stmt 1 view -0
 296              		.cfi_startproc
 297              		@ args = 0, pretend = 0, frame = 0
 298              		@ frame_needed = 0, uses_anonymous_args = 0
 299              		@ link register save eliminated.
 241:Drivers/STM32G4xx_HAL_Driver/Src/stm32g4xx_hal_pwr_ex.c ****   assert_param(IS_PWR_BATTERY_RESISTOR_SELECT(ResistorSelection));
 300              		.loc 1 241 3 view .LVU76
 242:Drivers/STM32G4xx_HAL_Driver/Src/stm32g4xx_hal_pwr_ex.c **** 
 243:Drivers/STM32G4xx_HAL_Driver/Src/stm32g4xx_hal_pwr_ex.c ****   /* Specify resistor selection */
 244:Drivers/STM32G4xx_HAL_Driver/Src/stm32g4xx_hal_pwr_ex.c ****   MODIFY_REG(PWR->CR4, PWR_CR4_VBRS, ResistorSelection);
 301              		.loc 1 244 3 view .LVU77
 302 0000 054A     		ldr	r2, .L28
 303 0002 D368     		ldr	r3, [r2, #12]
 304 0004 23F40073 		bic	r3, r3, #512
 305 0008 1843     		orrs	r0, r0, r3
 306              	.LVL21:
 307              		.loc 1 244 3 is_stmt 0 view .LVU78
 308 000a D060     		str	r0, [r2, #12]
 245:Drivers/STM32G4xx_HAL_Driver/Src/stm32g4xx_hal_pwr_ex.c **** 
 246:Drivers/STM32G4xx_HAL_Driver/Src/stm32g4xx_hal_pwr_ex.c ****   /* Enable battery charging */
 247:Drivers/STM32G4xx_HAL_Driver/Src/stm32g4xx_hal_pwr_ex.c ****   SET_BIT(PWR->CR4, PWR_CR4_VBE);
 309              		.loc 1 247 3 is_stmt 1 view .LVU79
 310 000c D368     		ldr	r3, [r2, #12]
 311 000e 43F48073 		orr	r3, r3, #256
 312 0012 D360     		str	r3, [r2, #12]
 248:Drivers/STM32G4xx_HAL_Driver/Src/stm32g4xx_hal_pwr_ex.c **** }
 313              		.loc 1 248 1 is_stmt 0 view .LVU80
 314 0014 7047     		bx	lr
 315              	.L29:
 316 0016 00BF     		.align	2
 317              	.L28:
 318 0018 00700040 		.word	1073770496
 319              		.cfi_endproc
 320              	.LFE327:
 322              		.section	.text.HAL_PWREx_DisableBatteryCharging,"ax",%progbits
 323              		.align	1
 324              		.global	HAL_PWREx_DisableBatteryCharging
 325              		.syntax unified
 326              		.thumb
 327              		.thumb_func
 328              		.fpu fpv4-sp-d16
 330              	HAL_PWREx_DisableBatteryCharging:
 331              	.LFB328:
 249:Drivers/STM32G4xx_HAL_Driver/Src/stm32g4xx_hal_pwr_ex.c **** 
 250:Drivers/STM32G4xx_HAL_Driver/Src/stm32g4xx_hal_pwr_ex.c **** 
 251:Drivers/STM32G4xx_HAL_Driver/Src/stm32g4xx_hal_pwr_ex.c **** /**
 252:Drivers/STM32G4xx_HAL_Driver/Src/stm32g4xx_hal_pwr_ex.c ****   * @brief Disable battery charging.
 253:Drivers/STM32G4xx_HAL_Driver/Src/stm32g4xx_hal_pwr_ex.c ****   * @retval None
 254:Drivers/STM32G4xx_HAL_Driver/Src/stm32g4xx_hal_pwr_ex.c ****   */
 255:Drivers/STM32G4xx_HAL_Driver/Src/stm32g4xx_hal_pwr_ex.c **** void HAL_PWREx_DisableBatteryCharging(void)
 256:Drivers/STM32G4xx_HAL_Driver/Src/stm32g4xx_hal_pwr_ex.c **** {
 332              		.loc 1 256 1 is_stmt 1 view -0
ARM GAS  /tmp/cc9EFiwU.s 			page 12


 333              		.cfi_startproc
 334              		@ args = 0, pretend = 0, frame = 0
 335              		@ frame_needed = 0, uses_anonymous_args = 0
 336              		@ link register save eliminated.
 257:Drivers/STM32G4xx_HAL_Driver/Src/stm32g4xx_hal_pwr_ex.c ****   CLEAR_BIT(PWR->CR4, PWR_CR4_VBE);
 337              		.loc 1 257 3 view .LVU82
 338 0000 024A     		ldr	r2, .L31
 339 0002 D368     		ldr	r3, [r2, #12]
 340 0004 23F48073 		bic	r3, r3, #256
 341 0008 D360     		str	r3, [r2, #12]
 258:Drivers/STM32G4xx_HAL_Driver/Src/stm32g4xx_hal_pwr_ex.c **** }
 342              		.loc 1 258 1 is_stmt 0 view .LVU83
 343 000a 7047     		bx	lr
 344              	.L32:
 345              		.align	2
 346              	.L31:
 347 000c 00700040 		.word	1073770496
 348              		.cfi_endproc
 349              	.LFE328:
 351              		.section	.text.HAL_PWREx_EnableInternalWakeUpLine,"ax",%progbits
 352              		.align	1
 353              		.global	HAL_PWREx_EnableInternalWakeUpLine
 354              		.syntax unified
 355              		.thumb
 356              		.thumb_func
 357              		.fpu fpv4-sp-d16
 359              	HAL_PWREx_EnableInternalWakeUpLine:
 360              	.LFB329:
 259:Drivers/STM32G4xx_HAL_Driver/Src/stm32g4xx_hal_pwr_ex.c **** 
 260:Drivers/STM32G4xx_HAL_Driver/Src/stm32g4xx_hal_pwr_ex.c **** 
 261:Drivers/STM32G4xx_HAL_Driver/Src/stm32g4xx_hal_pwr_ex.c **** /**
 262:Drivers/STM32G4xx_HAL_Driver/Src/stm32g4xx_hal_pwr_ex.c ****   * @brief Enable Internal Wake-up Line.
 263:Drivers/STM32G4xx_HAL_Driver/Src/stm32g4xx_hal_pwr_ex.c ****   * @retval None
 264:Drivers/STM32G4xx_HAL_Driver/Src/stm32g4xx_hal_pwr_ex.c ****   */
 265:Drivers/STM32G4xx_HAL_Driver/Src/stm32g4xx_hal_pwr_ex.c **** void HAL_PWREx_EnableInternalWakeUpLine(void)
 266:Drivers/STM32G4xx_HAL_Driver/Src/stm32g4xx_hal_pwr_ex.c **** {
 361              		.loc 1 266 1 is_stmt 1 view -0
 362              		.cfi_startproc
 363              		@ args = 0, pretend = 0, frame = 0
 364              		@ frame_needed = 0, uses_anonymous_args = 0
 365              		@ link register save eliminated.
 267:Drivers/STM32G4xx_HAL_Driver/Src/stm32g4xx_hal_pwr_ex.c ****   SET_BIT(PWR->CR3, PWR_CR3_EIWF);
 366              		.loc 1 267 3 view .LVU85
 367 0000 024A     		ldr	r2, .L34
 368 0002 9368     		ldr	r3, [r2, #8]
 369 0004 43F40043 		orr	r3, r3, #32768
 370 0008 9360     		str	r3, [r2, #8]
 268:Drivers/STM32G4xx_HAL_Driver/Src/stm32g4xx_hal_pwr_ex.c **** }
 371              		.loc 1 268 1 is_stmt 0 view .LVU86
 372 000a 7047     		bx	lr
 373              	.L35:
 374              		.align	2
 375              	.L34:
 376 000c 00700040 		.word	1073770496
 377              		.cfi_endproc
 378              	.LFE329:
 380              		.section	.text.HAL_PWREx_DisableInternalWakeUpLine,"ax",%progbits
ARM GAS  /tmp/cc9EFiwU.s 			page 13


 381              		.align	1
 382              		.global	HAL_PWREx_DisableInternalWakeUpLine
 383              		.syntax unified
 384              		.thumb
 385              		.thumb_func
 386              		.fpu fpv4-sp-d16
 388              	HAL_PWREx_DisableInternalWakeUpLine:
 389              	.LFB330:
 269:Drivers/STM32G4xx_HAL_Driver/Src/stm32g4xx_hal_pwr_ex.c **** 
 270:Drivers/STM32G4xx_HAL_Driver/Src/stm32g4xx_hal_pwr_ex.c **** 
 271:Drivers/STM32G4xx_HAL_Driver/Src/stm32g4xx_hal_pwr_ex.c **** /**
 272:Drivers/STM32G4xx_HAL_Driver/Src/stm32g4xx_hal_pwr_ex.c ****   * @brief Disable Internal Wake-up Line.
 273:Drivers/STM32G4xx_HAL_Driver/Src/stm32g4xx_hal_pwr_ex.c ****   * @retval None
 274:Drivers/STM32G4xx_HAL_Driver/Src/stm32g4xx_hal_pwr_ex.c ****   */
 275:Drivers/STM32G4xx_HAL_Driver/Src/stm32g4xx_hal_pwr_ex.c **** void HAL_PWREx_DisableInternalWakeUpLine(void)
 276:Drivers/STM32G4xx_HAL_Driver/Src/stm32g4xx_hal_pwr_ex.c **** {
 390              		.loc 1 276 1 is_stmt 1 view -0
 391              		.cfi_startproc
 392              		@ args = 0, pretend = 0, frame = 0
 393              		@ frame_needed = 0, uses_anonymous_args = 0
 394              		@ link register save eliminated.
 277:Drivers/STM32G4xx_HAL_Driver/Src/stm32g4xx_hal_pwr_ex.c ****   CLEAR_BIT(PWR->CR3, PWR_CR3_EIWF);
 395              		.loc 1 277 3 view .LVU88
 396 0000 024A     		ldr	r2, .L37
 397 0002 9368     		ldr	r3, [r2, #8]
 398 0004 23F40043 		bic	r3, r3, #32768
 399 0008 9360     		str	r3, [r2, #8]
 278:Drivers/STM32G4xx_HAL_Driver/Src/stm32g4xx_hal_pwr_ex.c **** }
 400              		.loc 1 278 1 is_stmt 0 view .LVU89
 401 000a 7047     		bx	lr
 402              	.L38:
 403              		.align	2
 404              	.L37:
 405 000c 00700040 		.word	1073770496
 406              		.cfi_endproc
 407              	.LFE330:
 409              		.section	.text.HAL_PWREx_EnableGPIOPullUp,"ax",%progbits
 410              		.align	1
 411              		.global	HAL_PWREx_EnableGPIOPullUp
 412              		.syntax unified
 413              		.thumb
 414              		.thumb_func
 415              		.fpu fpv4-sp-d16
 417              	HAL_PWREx_EnableGPIOPullUp:
 418              	.LVL22:
 419              	.LFB331:
 279:Drivers/STM32G4xx_HAL_Driver/Src/stm32g4xx_hal_pwr_ex.c **** 
 280:Drivers/STM32G4xx_HAL_Driver/Src/stm32g4xx_hal_pwr_ex.c **** 
 281:Drivers/STM32G4xx_HAL_Driver/Src/stm32g4xx_hal_pwr_ex.c **** 
 282:Drivers/STM32G4xx_HAL_Driver/Src/stm32g4xx_hal_pwr_ex.c **** /**
 283:Drivers/STM32G4xx_HAL_Driver/Src/stm32g4xx_hal_pwr_ex.c ****   * @brief Enable GPIO pull-up state in Standby and Shutdown modes.
 284:Drivers/STM32G4xx_HAL_Driver/Src/stm32g4xx_hal_pwr_ex.c ****   * @note  Set the relevant PUy bits of PWR_PUCRx register to configure the I/O in
 285:Drivers/STM32G4xx_HAL_Driver/Src/stm32g4xx_hal_pwr_ex.c ****   *        pull-up state in Standby and Shutdown modes.
 286:Drivers/STM32G4xx_HAL_Driver/Src/stm32g4xx_hal_pwr_ex.c ****   * @note  This state is effective in Standby and Shutdown modes only if APC bit
 287:Drivers/STM32G4xx_HAL_Driver/Src/stm32g4xx_hal_pwr_ex.c ****   *        is set through HAL_PWREx_EnablePullUpPullDownConfig() API.
 288:Drivers/STM32G4xx_HAL_Driver/Src/stm32g4xx_hal_pwr_ex.c ****   * @note  The configuration is lost when exiting the Shutdown mode due to the
 289:Drivers/STM32G4xx_HAL_Driver/Src/stm32g4xx_hal_pwr_ex.c ****   *        power-on reset, maintained when exiting the Standby mode.
ARM GAS  /tmp/cc9EFiwU.s 			page 14


 290:Drivers/STM32G4xx_HAL_Driver/Src/stm32g4xx_hal_pwr_ex.c ****   * @note  To avoid any conflict at Standby and Shutdown modes exits, the corresponding
 291:Drivers/STM32G4xx_HAL_Driver/Src/stm32g4xx_hal_pwr_ex.c ****   *        PDy bit of PWR_PDCRx register is cleared unless it is reserved.
 292:Drivers/STM32G4xx_HAL_Driver/Src/stm32g4xx_hal_pwr_ex.c ****   * @note  Even if a PUy bit to set is reserved, the other PUy bits entered as input
 293:Drivers/STM32G4xx_HAL_Driver/Src/stm32g4xx_hal_pwr_ex.c ****   *        parameter at the same time are set.
 294:Drivers/STM32G4xx_HAL_Driver/Src/stm32g4xx_hal_pwr_ex.c ****   * @param  GPIO: Specify the IO port. This parameter can be PWR_GPIO_A, ..., PWR_GPIO_G
 295:Drivers/STM32G4xx_HAL_Driver/Src/stm32g4xx_hal_pwr_ex.c ****   *         (or PWR_GPIO_I depending on the devices) to select the GPIO peripheral.
 296:Drivers/STM32G4xx_HAL_Driver/Src/stm32g4xx_hal_pwr_ex.c ****   * @param  GPIONumber: Specify the I/O pins numbers.
 297:Drivers/STM32G4xx_HAL_Driver/Src/stm32g4xx_hal_pwr_ex.c ****   *         This parameter can be one of the following values:
 298:Drivers/STM32G4xx_HAL_Driver/Src/stm32g4xx_hal_pwr_ex.c ****   *         PWR_GPIO_BIT_0, ..., PWR_GPIO_BIT_15 (except for the port where less
 299:Drivers/STM32G4xx_HAL_Driver/Src/stm32g4xx_hal_pwr_ex.c ****   *         I/O pins are available) or the logical OR of several of them to set
 300:Drivers/STM32G4xx_HAL_Driver/Src/stm32g4xx_hal_pwr_ex.c ****   *         several bits for a given port in a single API call.
 301:Drivers/STM32G4xx_HAL_Driver/Src/stm32g4xx_hal_pwr_ex.c ****   * @retval HAL Status
 302:Drivers/STM32G4xx_HAL_Driver/Src/stm32g4xx_hal_pwr_ex.c ****   */
 303:Drivers/STM32G4xx_HAL_Driver/Src/stm32g4xx_hal_pwr_ex.c **** HAL_StatusTypeDef HAL_PWREx_EnableGPIOPullUp(uint32_t GPIO, uint32_t GPIONumber)
 304:Drivers/STM32G4xx_HAL_Driver/Src/stm32g4xx_hal_pwr_ex.c **** {
 420              		.loc 1 304 1 is_stmt 1 view -0
 421              		.cfi_startproc
 422              		@ args = 0, pretend = 0, frame = 0
 423              		@ frame_needed = 0, uses_anonymous_args = 0
 424              		@ link register save eliminated.
 305:Drivers/STM32G4xx_HAL_Driver/Src/stm32g4xx_hal_pwr_ex.c ****   HAL_StatusTypeDef status = HAL_OK;
 425              		.loc 1 305 3 view .LVU91
 306:Drivers/STM32G4xx_HAL_Driver/Src/stm32g4xx_hal_pwr_ex.c **** 
 307:Drivers/STM32G4xx_HAL_Driver/Src/stm32g4xx_hal_pwr_ex.c ****   assert_param(IS_PWR_GPIO(GPIO));
 426              		.loc 1 307 3 view .LVU92
 308:Drivers/STM32G4xx_HAL_Driver/Src/stm32g4xx_hal_pwr_ex.c ****   assert_param(IS_PWR_GPIO_BIT_NUMBER(GPIONumber));
 427              		.loc 1 308 3 view .LVU93
 309:Drivers/STM32G4xx_HAL_Driver/Src/stm32g4xx_hal_pwr_ex.c **** 
 310:Drivers/STM32G4xx_HAL_Driver/Src/stm32g4xx_hal_pwr_ex.c ****   switch (GPIO)
 428              		.loc 1 310 3 view .LVU94
 429 0000 0628     		cmp	r0, #6
 430 0002 56D8     		bhi	.L49
 431 0004 DFE800F0 		tbb	[pc, r0]
 432              	.L42:
 433 0008 04       		.byte	(.L48-.L42)/2
 434 0009 12       		.byte	(.L47-.L42)/2
 435 000a 1E       		.byte	(.L46-.L42)/2
 436 000b 28       		.byte	(.L45-.L42)/2
 437 000c 32       		.byte	(.L44-.L42)/2
 438 000d 3C       		.byte	(.L43-.L42)/2
 439 000e 47       		.byte	(.L41-.L42)/2
 440 000f 00       		.p2align 1
 441              	.L48:
 311:Drivers/STM32G4xx_HAL_Driver/Src/stm32g4xx_hal_pwr_ex.c ****   {
 312:Drivers/STM32G4xx_HAL_Driver/Src/stm32g4xx_hal_pwr_ex.c ****     case PWR_GPIO_A:
 313:Drivers/STM32G4xx_HAL_Driver/Src/stm32g4xx_hal_pwr_ex.c ****        SET_BIT(PWR->PUCRA, (GPIONumber & (~(PWR_GPIO_BIT_14))));
 442              		.loc 1 313 8 view .LVU95
 443 0010 294B     		ldr	r3, .L50
 444 0012 1A6A     		ldr	r2, [r3, #32]
 445 0014 21F48040 		bic	r0, r1, #16384
 446              	.LVL23:
 447              		.loc 1 313 8 is_stmt 0 view .LVU96
 448 0018 0243     		orrs	r2, r2, r0
 449 001a 1A62     		str	r2, [r3, #32]
 314:Drivers/STM32G4xx_HAL_Driver/Src/stm32g4xx_hal_pwr_ex.c ****        CLEAR_BIT(PWR->PDCRA, (GPIONumber & (~(PWR_GPIO_BIT_13|PWR_GPIO_BIT_15))));
 450              		.loc 1 314 8 is_stmt 1 view .LVU97
 451 001c 5A6A     		ldr	r2, [r3, #36]
ARM GAS  /tmp/cc9EFiwU.s 			page 15


 452 001e 21F42041 		bic	r1, r1, #40960
 453              	.LVL24:
 454              		.loc 1 314 8 is_stmt 0 view .LVU98
 455 0022 22EA0102 		bic	r2, r2, r1
 456 0026 5A62     		str	r2, [r3, #36]
 315:Drivers/STM32G4xx_HAL_Driver/Src/stm32g4xx_hal_pwr_ex.c ****        break;
 457              		.loc 1 315 8 is_stmt 1 view .LVU99
 305:Drivers/STM32G4xx_HAL_Driver/Src/stm32g4xx_hal_pwr_ex.c **** 
 458              		.loc 1 305 21 is_stmt 0 view .LVU100
 459 0028 0020     		movs	r0, #0
 460              		.loc 1 315 8 view .LVU101
 461 002a 7047     		bx	lr
 462              	.LVL25:
 463              	.L47:
 316:Drivers/STM32G4xx_HAL_Driver/Src/stm32g4xx_hal_pwr_ex.c ****     case PWR_GPIO_B:
 317:Drivers/STM32G4xx_HAL_Driver/Src/stm32g4xx_hal_pwr_ex.c ****        SET_BIT(PWR->PUCRB, GPIONumber);
 464              		.loc 1 317 8 is_stmt 1 view .LVU102
 465 002c 224B     		ldr	r3, .L50
 466 002e 9A6A     		ldr	r2, [r3, #40]
 467 0030 0A43     		orrs	r2, r2, r1
 468 0032 9A62     		str	r2, [r3, #40]
 318:Drivers/STM32G4xx_HAL_Driver/Src/stm32g4xx_hal_pwr_ex.c ****        CLEAR_BIT(PWR->PDCRB, (GPIONumber & (~(PWR_GPIO_BIT_4))));
 469              		.loc 1 318 8 view .LVU103
 470 0034 DA6A     		ldr	r2, [r3, #44]
 471 0036 21F01001 		bic	r1, r1, #16
 472              	.LVL26:
 473              		.loc 1 318 8 is_stmt 0 view .LVU104
 474 003a 22EA0102 		bic	r2, r2, r1
 475 003e DA62     		str	r2, [r3, #44]
 319:Drivers/STM32G4xx_HAL_Driver/Src/stm32g4xx_hal_pwr_ex.c ****        break;
 476              		.loc 1 319 8 is_stmt 1 view .LVU105
 305:Drivers/STM32G4xx_HAL_Driver/Src/stm32g4xx_hal_pwr_ex.c **** 
 477              		.loc 1 305 21 is_stmt 0 view .LVU106
 478 0040 0020     		movs	r0, #0
 479              	.LVL27:
 480              		.loc 1 319 8 view .LVU107
 481 0042 7047     		bx	lr
 482              	.LVL28:
 483              	.L46:
 320:Drivers/STM32G4xx_HAL_Driver/Src/stm32g4xx_hal_pwr_ex.c ****     case PWR_GPIO_C:
 321:Drivers/STM32G4xx_HAL_Driver/Src/stm32g4xx_hal_pwr_ex.c ****        SET_BIT(PWR->PUCRC, GPIONumber);
 484              		.loc 1 321 8 is_stmt 1 view .LVU108
 485 0044 1C4B     		ldr	r3, .L50
 486 0046 1A6B     		ldr	r2, [r3, #48]
 487 0048 0A43     		orrs	r2, r2, r1
 488 004a 1A63     		str	r2, [r3, #48]
 322:Drivers/STM32G4xx_HAL_Driver/Src/stm32g4xx_hal_pwr_ex.c ****        CLEAR_BIT(PWR->PDCRC, GPIONumber);
 489              		.loc 1 322 8 view .LVU109
 490 004c 5A6B     		ldr	r2, [r3, #52]
 491 004e 22EA0101 		bic	r1, r2, r1
 492              	.LVL29:
 493              		.loc 1 322 8 is_stmt 0 view .LVU110
 494 0052 5963     		str	r1, [r3, #52]
 323:Drivers/STM32G4xx_HAL_Driver/Src/stm32g4xx_hal_pwr_ex.c ****        break;
 495              		.loc 1 323 8 is_stmt 1 view .LVU111
 305:Drivers/STM32G4xx_HAL_Driver/Src/stm32g4xx_hal_pwr_ex.c **** 
 496              		.loc 1 305 21 is_stmt 0 view .LVU112
ARM GAS  /tmp/cc9EFiwU.s 			page 16


 497 0054 0020     		movs	r0, #0
 498              	.LVL30:
 499              		.loc 1 323 8 view .LVU113
 500 0056 7047     		bx	lr
 501              	.LVL31:
 502              	.L45:
 324:Drivers/STM32G4xx_HAL_Driver/Src/stm32g4xx_hal_pwr_ex.c ****     case PWR_GPIO_D:
 325:Drivers/STM32G4xx_HAL_Driver/Src/stm32g4xx_hal_pwr_ex.c ****        SET_BIT(PWR->PUCRD, GPIONumber);
 503              		.loc 1 325 8 is_stmt 1 view .LVU114
 504 0058 174B     		ldr	r3, .L50
 505 005a 9A6B     		ldr	r2, [r3, #56]
 506 005c 0A43     		orrs	r2, r2, r1
 507 005e 9A63     		str	r2, [r3, #56]
 326:Drivers/STM32G4xx_HAL_Driver/Src/stm32g4xx_hal_pwr_ex.c ****        CLEAR_BIT(PWR->PDCRD, GPIONumber);
 508              		.loc 1 326 8 view .LVU115
 509 0060 DA6B     		ldr	r2, [r3, #60]
 510 0062 22EA0101 		bic	r1, r2, r1
 511              	.LVL32:
 512              		.loc 1 326 8 is_stmt 0 view .LVU116
 513 0066 D963     		str	r1, [r3, #60]
 327:Drivers/STM32G4xx_HAL_Driver/Src/stm32g4xx_hal_pwr_ex.c ****        break;
 514              		.loc 1 327 8 is_stmt 1 view .LVU117
 305:Drivers/STM32G4xx_HAL_Driver/Src/stm32g4xx_hal_pwr_ex.c **** 
 515              		.loc 1 305 21 is_stmt 0 view .LVU118
 516 0068 0020     		movs	r0, #0
 517              	.LVL33:
 518              		.loc 1 327 8 view .LVU119
 519 006a 7047     		bx	lr
 520              	.LVL34:
 521              	.L44:
 328:Drivers/STM32G4xx_HAL_Driver/Src/stm32g4xx_hal_pwr_ex.c ****     case PWR_GPIO_E:
 329:Drivers/STM32G4xx_HAL_Driver/Src/stm32g4xx_hal_pwr_ex.c ****        SET_BIT(PWR->PUCRE, GPIONumber);
 522              		.loc 1 329 8 is_stmt 1 view .LVU120
 523 006c 124B     		ldr	r3, .L50
 524 006e 1A6C     		ldr	r2, [r3, #64]
 525 0070 0A43     		orrs	r2, r2, r1
 526 0072 1A64     		str	r2, [r3, #64]
 330:Drivers/STM32G4xx_HAL_Driver/Src/stm32g4xx_hal_pwr_ex.c ****        CLEAR_BIT(PWR->PDCRE, GPIONumber);
 527              		.loc 1 330 8 view .LVU121
 528 0074 5A6C     		ldr	r2, [r3, #68]
 529 0076 22EA0101 		bic	r1, r2, r1
 530              	.LVL35:
 531              		.loc 1 330 8 is_stmt 0 view .LVU122
 532 007a 5964     		str	r1, [r3, #68]
 331:Drivers/STM32G4xx_HAL_Driver/Src/stm32g4xx_hal_pwr_ex.c ****        break;
 533              		.loc 1 331 8 is_stmt 1 view .LVU123
 305:Drivers/STM32G4xx_HAL_Driver/Src/stm32g4xx_hal_pwr_ex.c **** 
 534              		.loc 1 305 21 is_stmt 0 view .LVU124
 535 007c 0020     		movs	r0, #0
 536              	.LVL36:
 537              		.loc 1 331 8 view .LVU125
 538 007e 7047     		bx	lr
 539              	.LVL37:
 540              	.L43:
 332:Drivers/STM32G4xx_HAL_Driver/Src/stm32g4xx_hal_pwr_ex.c ****     case PWR_GPIO_F:
 333:Drivers/STM32G4xx_HAL_Driver/Src/stm32g4xx_hal_pwr_ex.c ****        SET_BIT(PWR->PUCRF, (GPIONumber & PWR_PORTF_AVAILABLE_PINS));
 541              		.loc 1 333 8 is_stmt 1 view .LVU126
ARM GAS  /tmp/cc9EFiwU.s 			page 17


 542 0080 0D4B     		ldr	r3, .L50
 543 0082 9A6C     		ldr	r2, [r3, #72]
 544 0084 89B2     		uxth	r1, r1
 545              	.LVL38:
 546              		.loc 1 333 8 is_stmt 0 view .LVU127
 547 0086 0A43     		orrs	r2, r2, r1
 548 0088 9A64     		str	r2, [r3, #72]
 334:Drivers/STM32G4xx_HAL_Driver/Src/stm32g4xx_hal_pwr_ex.c ****        CLEAR_BIT(PWR->PDCRF, (GPIONumber & PWR_PORTF_AVAILABLE_PINS));
 549              		.loc 1 334 8 is_stmt 1 view .LVU128
 550 008a DA6C     		ldr	r2, [r3, #76]
 551 008c 22EA0101 		bic	r1, r2, r1
 552 0090 D964     		str	r1, [r3, #76]
 335:Drivers/STM32G4xx_HAL_Driver/Src/stm32g4xx_hal_pwr_ex.c ****        break;
 553              		.loc 1 335 8 view .LVU129
 305:Drivers/STM32G4xx_HAL_Driver/Src/stm32g4xx_hal_pwr_ex.c **** 
 554              		.loc 1 305 21 is_stmt 0 view .LVU130
 555 0092 0020     		movs	r0, #0
 556              	.LVL39:
 557              		.loc 1 335 8 view .LVU131
 558 0094 7047     		bx	lr
 559              	.LVL40:
 560              	.L41:
 336:Drivers/STM32G4xx_HAL_Driver/Src/stm32g4xx_hal_pwr_ex.c ****     case PWR_GPIO_G:
 337:Drivers/STM32G4xx_HAL_Driver/Src/stm32g4xx_hal_pwr_ex.c ****        SET_BIT(PWR->PUCRG, (GPIONumber & PWR_PORTG_AVAILABLE_PINS));
 561              		.loc 1 337 8 is_stmt 1 view .LVU132
 562 0096 084B     		ldr	r3, .L50
 563 0098 1A6D     		ldr	r2, [r3, #80]
 564 009a C1F30A00 		ubfx	r0, r1, #0, #11
 565              	.LVL41:
 566              		.loc 1 337 8 is_stmt 0 view .LVU133
 567 009e 0243     		orrs	r2, r2, r0
 568 00a0 1A65     		str	r2, [r3, #80]
 338:Drivers/STM32G4xx_HAL_Driver/Src/stm32g4xx_hal_pwr_ex.c ****        CLEAR_BIT(PWR->PDCRG, ((GPIONumber & PWR_PORTG_AVAILABLE_PINS) & (~(PWR_GPIO_BIT_10))));
 569              		.loc 1 338 8 is_stmt 1 view .LVU134
 570 00a2 5A6D     		ldr	r2, [r3, #84]
 571 00a4 C1F30901 		ubfx	r1, r1, #0, #10
 572              	.LVL42:
 573              		.loc 1 338 8 is_stmt 0 view .LVU135
 574 00a8 22EA0101 		bic	r1, r2, r1
 575 00ac 5965     		str	r1, [r3, #84]
 339:Drivers/STM32G4xx_HAL_Driver/Src/stm32g4xx_hal_pwr_ex.c ****        break;
 576              		.loc 1 339 8 is_stmt 1 view .LVU136
 305:Drivers/STM32G4xx_HAL_Driver/Src/stm32g4xx_hal_pwr_ex.c **** 
 577              		.loc 1 305 21 is_stmt 0 view .LVU137
 578 00ae 0020     		movs	r0, #0
 579              		.loc 1 339 8 view .LVU138
 580 00b0 7047     		bx	lr
 581              	.LVL43:
 582              	.L49:
 340:Drivers/STM32G4xx_HAL_Driver/Src/stm32g4xx_hal_pwr_ex.c ****     default:
 341:Drivers/STM32G4xx_HAL_Driver/Src/stm32g4xx_hal_pwr_ex.c ****       status = HAL_ERROR;
 583              		.loc 1 341 14 view .LVU139
 584 00b2 0120     		movs	r0, #1
 585              	.LVL44:
 342:Drivers/STM32G4xx_HAL_Driver/Src/stm32g4xx_hal_pwr_ex.c ****       break;
 343:Drivers/STM32G4xx_HAL_Driver/Src/stm32g4xx_hal_pwr_ex.c ****   }
 344:Drivers/STM32G4xx_HAL_Driver/Src/stm32g4xx_hal_pwr_ex.c **** 
ARM GAS  /tmp/cc9EFiwU.s 			page 18


 345:Drivers/STM32G4xx_HAL_Driver/Src/stm32g4xx_hal_pwr_ex.c ****   return status;
 586              		.loc 1 345 3 is_stmt 1 view .LVU140
 346:Drivers/STM32G4xx_HAL_Driver/Src/stm32g4xx_hal_pwr_ex.c **** }
 587              		.loc 1 346 1 is_stmt 0 view .LVU141
 588 00b4 7047     		bx	lr
 589              	.L51:
 590 00b6 00BF     		.align	2
 591              	.L50:
 592 00b8 00700040 		.word	1073770496
 593              		.cfi_endproc
 594              	.LFE331:
 596              		.section	.text.HAL_PWREx_DisableGPIOPullUp,"ax",%progbits
 597              		.align	1
 598              		.global	HAL_PWREx_DisableGPIOPullUp
 599              		.syntax unified
 600              		.thumb
 601              		.thumb_func
 602              		.fpu fpv4-sp-d16
 604              	HAL_PWREx_DisableGPIOPullUp:
 605              	.LVL45:
 606              	.LFB332:
 347:Drivers/STM32G4xx_HAL_Driver/Src/stm32g4xx_hal_pwr_ex.c **** 
 348:Drivers/STM32G4xx_HAL_Driver/Src/stm32g4xx_hal_pwr_ex.c **** 
 349:Drivers/STM32G4xx_HAL_Driver/Src/stm32g4xx_hal_pwr_ex.c **** /**
 350:Drivers/STM32G4xx_HAL_Driver/Src/stm32g4xx_hal_pwr_ex.c ****   * @brief Disable GPIO pull-up state in Standby mode and Shutdown modes.
 351:Drivers/STM32G4xx_HAL_Driver/Src/stm32g4xx_hal_pwr_ex.c ****   * @note  Reset the relevant PUy bits of PWR_PUCRx register used to configure the I/O
 352:Drivers/STM32G4xx_HAL_Driver/Src/stm32g4xx_hal_pwr_ex.c ****   *        in pull-up state in Standby and Shutdown modes.
 353:Drivers/STM32G4xx_HAL_Driver/Src/stm32g4xx_hal_pwr_ex.c ****   * @note  Even if a PUy bit to reset is reserved, the other PUy bits entered as input
 354:Drivers/STM32G4xx_HAL_Driver/Src/stm32g4xx_hal_pwr_ex.c ****   *        parameter at the same time are reset.
 355:Drivers/STM32G4xx_HAL_Driver/Src/stm32g4xx_hal_pwr_ex.c ****   * @param  GPIO: Specifies the IO port. This parameter can be PWR_GPIO_A, ..., PWR_GPIO_G
 356:Drivers/STM32G4xx_HAL_Driver/Src/stm32g4xx_hal_pwr_ex.c ****   *          (or PWR_GPIO_I depending on the devices) to select the GPIO peripheral.
 357:Drivers/STM32G4xx_HAL_Driver/Src/stm32g4xx_hal_pwr_ex.c ****   * @param  GPIONumber: Specify the I/O pins numbers.
 358:Drivers/STM32G4xx_HAL_Driver/Src/stm32g4xx_hal_pwr_ex.c ****   *         This parameter can be one of the following values:
 359:Drivers/STM32G4xx_HAL_Driver/Src/stm32g4xx_hal_pwr_ex.c ****   *         PWR_GPIO_BIT_0, ..., PWR_GPIO_BIT_15 (except for the port where less
 360:Drivers/STM32G4xx_HAL_Driver/Src/stm32g4xx_hal_pwr_ex.c ****   *         I/O pins are available) or the logical OR of several of them to reset
 361:Drivers/STM32G4xx_HAL_Driver/Src/stm32g4xx_hal_pwr_ex.c ****   *         several bits for a given port in a single API call.
 362:Drivers/STM32G4xx_HAL_Driver/Src/stm32g4xx_hal_pwr_ex.c ****   * @retval HAL Status
 363:Drivers/STM32G4xx_HAL_Driver/Src/stm32g4xx_hal_pwr_ex.c ****   */
 364:Drivers/STM32G4xx_HAL_Driver/Src/stm32g4xx_hal_pwr_ex.c **** HAL_StatusTypeDef HAL_PWREx_DisableGPIOPullUp(uint32_t GPIO, uint32_t GPIONumber)
 365:Drivers/STM32G4xx_HAL_Driver/Src/stm32g4xx_hal_pwr_ex.c **** {
 607              		.loc 1 365 1 is_stmt 1 view -0
 608              		.cfi_startproc
 609              		@ args = 0, pretend = 0, frame = 0
 610              		@ frame_needed = 0, uses_anonymous_args = 0
 611              		@ link register save eliminated.
 366:Drivers/STM32G4xx_HAL_Driver/Src/stm32g4xx_hal_pwr_ex.c ****   HAL_StatusTypeDef status = HAL_OK;
 612              		.loc 1 366 3 view .LVU143
 367:Drivers/STM32G4xx_HAL_Driver/Src/stm32g4xx_hal_pwr_ex.c **** 
 368:Drivers/STM32G4xx_HAL_Driver/Src/stm32g4xx_hal_pwr_ex.c ****   assert_param(IS_PWR_GPIO(GPIO));
 613              		.loc 1 368 3 view .LVU144
 369:Drivers/STM32G4xx_HAL_Driver/Src/stm32g4xx_hal_pwr_ex.c ****   assert_param(IS_PWR_GPIO_BIT_NUMBER(GPIONumber));
 614              		.loc 1 369 3 view .LVU145
 370:Drivers/STM32G4xx_HAL_Driver/Src/stm32g4xx_hal_pwr_ex.c **** 
 371:Drivers/STM32G4xx_HAL_Driver/Src/stm32g4xx_hal_pwr_ex.c ****   switch (GPIO)
 615              		.loc 1 371 3 view .LVU146
 616 0000 0628     		cmp	r0, #6
 617 0002 3BD8     		bhi	.L62
ARM GAS  /tmp/cc9EFiwU.s 			page 19


 618 0004 DFE800F0 		tbb	[pc, r0]
 619              	.L55:
 620 0008 04       		.byte	(.L61-.L55)/2
 621 0009 0D       		.byte	(.L60-.L55)/2
 622 000a 14       		.byte	(.L59-.L55)/2
 623 000b 1B       		.byte	(.L58-.L55)/2
 624 000c 22       		.byte	(.L57-.L55)/2
 625 000d 29       		.byte	(.L56-.L55)/2
 626 000e 31       		.byte	(.L54-.L55)/2
 627 000f 00       		.p2align 1
 628              	.L61:
 372:Drivers/STM32G4xx_HAL_Driver/Src/stm32g4xx_hal_pwr_ex.c ****   {
 373:Drivers/STM32G4xx_HAL_Driver/Src/stm32g4xx_hal_pwr_ex.c ****     case PWR_GPIO_A:
 374:Drivers/STM32G4xx_HAL_Driver/Src/stm32g4xx_hal_pwr_ex.c ****        CLEAR_BIT(PWR->PUCRA, (GPIONumber & (~(PWR_GPIO_BIT_14))));
 629              		.loc 1 374 8 view .LVU147
 630 0010 1B4A     		ldr	r2, .L63
 631 0012 136A     		ldr	r3, [r2, #32]
 632 0014 21F48041 		bic	r1, r1, #16384
 633              	.LVL46:
 634              		.loc 1 374 8 is_stmt 0 view .LVU148
 635 0018 23EA0103 		bic	r3, r3, r1
 636 001c 1362     		str	r3, [r2, #32]
 375:Drivers/STM32G4xx_HAL_Driver/Src/stm32g4xx_hal_pwr_ex.c ****        break;
 637              		.loc 1 375 8 is_stmt 1 view .LVU149
 366:Drivers/STM32G4xx_HAL_Driver/Src/stm32g4xx_hal_pwr_ex.c **** 
 638              		.loc 1 366 21 is_stmt 0 view .LVU150
 639 001e 0020     		movs	r0, #0
 640              	.LVL47:
 641              		.loc 1 375 8 view .LVU151
 642 0020 7047     		bx	lr
 643              	.LVL48:
 644              	.L60:
 376:Drivers/STM32G4xx_HAL_Driver/Src/stm32g4xx_hal_pwr_ex.c ****     case PWR_GPIO_B:
 377:Drivers/STM32G4xx_HAL_Driver/Src/stm32g4xx_hal_pwr_ex.c ****        CLEAR_BIT(PWR->PUCRB, GPIONumber);
 645              		.loc 1 377 8 is_stmt 1 view .LVU152
 646 0022 174A     		ldr	r2, .L63
 647 0024 936A     		ldr	r3, [r2, #40]
 648 0026 23EA0101 		bic	r1, r3, r1
 649              	.LVL49:
 650              		.loc 1 377 8 is_stmt 0 view .LVU153
 651 002a 9162     		str	r1, [r2, #40]
 378:Drivers/STM32G4xx_HAL_Driver/Src/stm32g4xx_hal_pwr_ex.c ****        break;
 652              		.loc 1 378 8 is_stmt 1 view .LVU154
 366:Drivers/STM32G4xx_HAL_Driver/Src/stm32g4xx_hal_pwr_ex.c **** 
 653              		.loc 1 366 21 is_stmt 0 view .LVU155
 654 002c 0020     		movs	r0, #0
 655              	.LVL50:
 656              		.loc 1 378 8 view .LVU156
 657 002e 7047     		bx	lr
 658              	.LVL51:
 659              	.L59:
 379:Drivers/STM32G4xx_HAL_Driver/Src/stm32g4xx_hal_pwr_ex.c ****     case PWR_GPIO_C:
 380:Drivers/STM32G4xx_HAL_Driver/Src/stm32g4xx_hal_pwr_ex.c ****        CLEAR_BIT(PWR->PUCRC, GPIONumber);
 660              		.loc 1 380 8 is_stmt 1 view .LVU157
 661 0030 134A     		ldr	r2, .L63
 662 0032 136B     		ldr	r3, [r2, #48]
 663 0034 23EA0101 		bic	r1, r3, r1
ARM GAS  /tmp/cc9EFiwU.s 			page 20


 664              	.LVL52:
 665              		.loc 1 380 8 is_stmt 0 view .LVU158
 666 0038 1163     		str	r1, [r2, #48]
 381:Drivers/STM32G4xx_HAL_Driver/Src/stm32g4xx_hal_pwr_ex.c ****        break;
 667              		.loc 1 381 8 is_stmt 1 view .LVU159
 366:Drivers/STM32G4xx_HAL_Driver/Src/stm32g4xx_hal_pwr_ex.c **** 
 668              		.loc 1 366 21 is_stmt 0 view .LVU160
 669 003a 0020     		movs	r0, #0
 670              	.LVL53:
 671              		.loc 1 381 8 view .LVU161
 672 003c 7047     		bx	lr
 673              	.LVL54:
 674              	.L58:
 382:Drivers/STM32G4xx_HAL_Driver/Src/stm32g4xx_hal_pwr_ex.c ****     case PWR_GPIO_D:
 383:Drivers/STM32G4xx_HAL_Driver/Src/stm32g4xx_hal_pwr_ex.c ****        CLEAR_BIT(PWR->PUCRD, GPIONumber);
 675              		.loc 1 383 8 is_stmt 1 view .LVU162
 676 003e 104A     		ldr	r2, .L63
 677 0040 936B     		ldr	r3, [r2, #56]
 678 0042 23EA0101 		bic	r1, r3, r1
 679              	.LVL55:
 680              		.loc 1 383 8 is_stmt 0 view .LVU163
 681 0046 9163     		str	r1, [r2, #56]
 384:Drivers/STM32G4xx_HAL_Driver/Src/stm32g4xx_hal_pwr_ex.c ****        break;
 682              		.loc 1 384 8 is_stmt 1 view .LVU164
 366:Drivers/STM32G4xx_HAL_Driver/Src/stm32g4xx_hal_pwr_ex.c **** 
 683              		.loc 1 366 21 is_stmt 0 view .LVU165
 684 0048 0020     		movs	r0, #0
 685              	.LVL56:
 686              		.loc 1 384 8 view .LVU166
 687 004a 7047     		bx	lr
 688              	.LVL57:
 689              	.L57:
 385:Drivers/STM32G4xx_HAL_Driver/Src/stm32g4xx_hal_pwr_ex.c ****     case PWR_GPIO_E:
 386:Drivers/STM32G4xx_HAL_Driver/Src/stm32g4xx_hal_pwr_ex.c ****        CLEAR_BIT(PWR->PUCRE, GPIONumber);
 690              		.loc 1 386 8 is_stmt 1 view .LVU167
 691 004c 0C4A     		ldr	r2, .L63
 692 004e 136C     		ldr	r3, [r2, #64]
 693 0050 23EA0101 		bic	r1, r3, r1
 694              	.LVL58:
 695              		.loc 1 386 8 is_stmt 0 view .LVU168
 696 0054 1164     		str	r1, [r2, #64]
 387:Drivers/STM32G4xx_HAL_Driver/Src/stm32g4xx_hal_pwr_ex.c ****        break;
 697              		.loc 1 387 8 is_stmt 1 view .LVU169
 366:Drivers/STM32G4xx_HAL_Driver/Src/stm32g4xx_hal_pwr_ex.c **** 
 698              		.loc 1 366 21 is_stmt 0 view .LVU170
 699 0056 0020     		movs	r0, #0
 700              	.LVL59:
 701              		.loc 1 387 8 view .LVU171
 702 0058 7047     		bx	lr
 703              	.LVL60:
 704              	.L56:
 388:Drivers/STM32G4xx_HAL_Driver/Src/stm32g4xx_hal_pwr_ex.c ****     case PWR_GPIO_F:
 389:Drivers/STM32G4xx_HAL_Driver/Src/stm32g4xx_hal_pwr_ex.c ****        CLEAR_BIT(PWR->PUCRF, (GPIONumber & PWR_PORTF_AVAILABLE_PINS));
 705              		.loc 1 389 8 is_stmt 1 view .LVU172
 706 005a 094A     		ldr	r2, .L63
 707 005c 936C     		ldr	r3, [r2, #72]
 708 005e 89B2     		uxth	r1, r1
ARM GAS  /tmp/cc9EFiwU.s 			page 21


 709              	.LVL61:
 710              		.loc 1 389 8 is_stmt 0 view .LVU173
 711 0060 23EA0103 		bic	r3, r3, r1
 712 0064 9364     		str	r3, [r2, #72]
 390:Drivers/STM32G4xx_HAL_Driver/Src/stm32g4xx_hal_pwr_ex.c ****        break;
 713              		.loc 1 390 8 is_stmt 1 view .LVU174
 366:Drivers/STM32G4xx_HAL_Driver/Src/stm32g4xx_hal_pwr_ex.c **** 
 714              		.loc 1 366 21 is_stmt 0 view .LVU175
 715 0066 0020     		movs	r0, #0
 716              	.LVL62:
 717              		.loc 1 390 8 view .LVU176
 718 0068 7047     		bx	lr
 719              	.LVL63:
 720              	.L54:
 391:Drivers/STM32G4xx_HAL_Driver/Src/stm32g4xx_hal_pwr_ex.c ****     case PWR_GPIO_G:
 392:Drivers/STM32G4xx_HAL_Driver/Src/stm32g4xx_hal_pwr_ex.c ****        CLEAR_BIT(PWR->PUCRG, (GPIONumber & PWR_PORTG_AVAILABLE_PINS));
 721              		.loc 1 392 8 is_stmt 1 view .LVU177
 722 006a 054A     		ldr	r2, .L63
 723 006c 136D     		ldr	r3, [r2, #80]
 724 006e C1F30A01 		ubfx	r1, r1, #0, #11
 725              	.LVL64:
 726              		.loc 1 392 8 is_stmt 0 view .LVU178
 727 0072 23EA0101 		bic	r1, r3, r1
 728 0076 1165     		str	r1, [r2, #80]
 393:Drivers/STM32G4xx_HAL_Driver/Src/stm32g4xx_hal_pwr_ex.c ****        break;
 729              		.loc 1 393 8 is_stmt 1 view .LVU179
 366:Drivers/STM32G4xx_HAL_Driver/Src/stm32g4xx_hal_pwr_ex.c **** 
 730              		.loc 1 366 21 is_stmt 0 view .LVU180
 731 0078 0020     		movs	r0, #0
 732              	.LVL65:
 733              		.loc 1 393 8 view .LVU181
 734 007a 7047     		bx	lr
 735              	.LVL66:
 736              	.L62:
 394:Drivers/STM32G4xx_HAL_Driver/Src/stm32g4xx_hal_pwr_ex.c ****     default:
 395:Drivers/STM32G4xx_HAL_Driver/Src/stm32g4xx_hal_pwr_ex.c ****        status = HAL_ERROR;
 737              		.loc 1 395 15 view .LVU182
 738 007c 0120     		movs	r0, #1
 739              	.LVL67:
 396:Drivers/STM32G4xx_HAL_Driver/Src/stm32g4xx_hal_pwr_ex.c ****        break;
 397:Drivers/STM32G4xx_HAL_Driver/Src/stm32g4xx_hal_pwr_ex.c ****   }
 398:Drivers/STM32G4xx_HAL_Driver/Src/stm32g4xx_hal_pwr_ex.c **** 
 399:Drivers/STM32G4xx_HAL_Driver/Src/stm32g4xx_hal_pwr_ex.c ****   return status;
 740              		.loc 1 399 3 is_stmt 1 view .LVU183
 400:Drivers/STM32G4xx_HAL_Driver/Src/stm32g4xx_hal_pwr_ex.c **** }
 741              		.loc 1 400 1 is_stmt 0 view .LVU184
 742 007e 7047     		bx	lr
 743              	.L64:
 744              		.align	2
 745              	.L63:
 746 0080 00700040 		.word	1073770496
 747              		.cfi_endproc
 748              	.LFE332:
 750              		.section	.text.HAL_PWREx_EnableGPIOPullDown,"ax",%progbits
 751              		.align	1
 752              		.global	HAL_PWREx_EnableGPIOPullDown
 753              		.syntax unified
ARM GAS  /tmp/cc9EFiwU.s 			page 22


 754              		.thumb
 755              		.thumb_func
 756              		.fpu fpv4-sp-d16
 758              	HAL_PWREx_EnableGPIOPullDown:
 759              	.LVL68:
 760              	.LFB333:
 401:Drivers/STM32G4xx_HAL_Driver/Src/stm32g4xx_hal_pwr_ex.c **** 
 402:Drivers/STM32G4xx_HAL_Driver/Src/stm32g4xx_hal_pwr_ex.c **** 
 403:Drivers/STM32G4xx_HAL_Driver/Src/stm32g4xx_hal_pwr_ex.c **** 
 404:Drivers/STM32G4xx_HAL_Driver/Src/stm32g4xx_hal_pwr_ex.c **** /**
 405:Drivers/STM32G4xx_HAL_Driver/Src/stm32g4xx_hal_pwr_ex.c ****   * @brief Enable GPIO pull-down state in Standby and Shutdown modes.
 406:Drivers/STM32G4xx_HAL_Driver/Src/stm32g4xx_hal_pwr_ex.c ****   * @note  Set the relevant PDy bits of PWR_PDCRx register to configure the I/O in
 407:Drivers/STM32G4xx_HAL_Driver/Src/stm32g4xx_hal_pwr_ex.c ****   *        pull-down state in Standby and Shutdown modes.
 408:Drivers/STM32G4xx_HAL_Driver/Src/stm32g4xx_hal_pwr_ex.c ****   * @note  This state is effective in Standby and Shutdown modes only if APC bit
 409:Drivers/STM32G4xx_HAL_Driver/Src/stm32g4xx_hal_pwr_ex.c ****   *        is set through HAL_PWREx_EnablePullUpPullDownConfig() API.
 410:Drivers/STM32G4xx_HAL_Driver/Src/stm32g4xx_hal_pwr_ex.c ****   * @note  The configuration is lost when exiting the Shutdown mode due to the
 411:Drivers/STM32G4xx_HAL_Driver/Src/stm32g4xx_hal_pwr_ex.c ****   *        power-on reset, maintained when exiting the Standby mode.
 412:Drivers/STM32G4xx_HAL_Driver/Src/stm32g4xx_hal_pwr_ex.c ****   * @note  To avoid any conflict at Standby and Shutdown modes exits, the corresponding
 413:Drivers/STM32G4xx_HAL_Driver/Src/stm32g4xx_hal_pwr_ex.c ****   *        PUy bit of PWR_PUCRx register is cleared unless it is reserved.
 414:Drivers/STM32G4xx_HAL_Driver/Src/stm32g4xx_hal_pwr_ex.c ****   * @note  Even if a PDy bit to set is reserved, the other PDy bits entered as input
 415:Drivers/STM32G4xx_HAL_Driver/Src/stm32g4xx_hal_pwr_ex.c ****   *        parameter at the same time are set.
 416:Drivers/STM32G4xx_HAL_Driver/Src/stm32g4xx_hal_pwr_ex.c ****   * @param  GPIO: Specify the IO port. This parameter can be PWR_GPIO_A..PWR_GPIO_G
 417:Drivers/STM32G4xx_HAL_Driver/Src/stm32g4xx_hal_pwr_ex.c ****   *         (or PWR_GPIO_I depending on the devices) to select the GPIO peripheral.
 418:Drivers/STM32G4xx_HAL_Driver/Src/stm32g4xx_hal_pwr_ex.c ****   * @param  GPIONumber: Specify the I/O pins numbers.
 419:Drivers/STM32G4xx_HAL_Driver/Src/stm32g4xx_hal_pwr_ex.c ****   *         This parameter can be one of the following values:
 420:Drivers/STM32G4xx_HAL_Driver/Src/stm32g4xx_hal_pwr_ex.c ****   *         PWR_GPIO_BIT_0, ..., PWR_GPIO_BIT_15 (except for the port where less
 421:Drivers/STM32G4xx_HAL_Driver/Src/stm32g4xx_hal_pwr_ex.c ****   *         I/O pins are available) or the logical OR of several of them to set
 422:Drivers/STM32G4xx_HAL_Driver/Src/stm32g4xx_hal_pwr_ex.c ****   *         several bits for a given port in a single API call.
 423:Drivers/STM32G4xx_HAL_Driver/Src/stm32g4xx_hal_pwr_ex.c ****   * @retval HAL Status
 424:Drivers/STM32G4xx_HAL_Driver/Src/stm32g4xx_hal_pwr_ex.c ****   */
 425:Drivers/STM32G4xx_HAL_Driver/Src/stm32g4xx_hal_pwr_ex.c **** HAL_StatusTypeDef HAL_PWREx_EnableGPIOPullDown(uint32_t GPIO, uint32_t GPIONumber)
 426:Drivers/STM32G4xx_HAL_Driver/Src/stm32g4xx_hal_pwr_ex.c **** {
 761              		.loc 1 426 1 is_stmt 1 view -0
 762              		.cfi_startproc
 763              		@ args = 0, pretend = 0, frame = 0
 764              		@ frame_needed = 0, uses_anonymous_args = 0
 765              		@ link register save eliminated.
 427:Drivers/STM32G4xx_HAL_Driver/Src/stm32g4xx_hal_pwr_ex.c ****   HAL_StatusTypeDef status = HAL_OK;
 766              		.loc 1 427 3 view .LVU186
 428:Drivers/STM32G4xx_HAL_Driver/Src/stm32g4xx_hal_pwr_ex.c **** 
 429:Drivers/STM32G4xx_HAL_Driver/Src/stm32g4xx_hal_pwr_ex.c ****   assert_param(IS_PWR_GPIO(GPIO));
 767              		.loc 1 429 3 view .LVU187
 430:Drivers/STM32G4xx_HAL_Driver/Src/stm32g4xx_hal_pwr_ex.c ****   assert_param(IS_PWR_GPIO_BIT_NUMBER(GPIONumber));
 768              		.loc 1 430 3 view .LVU188
 431:Drivers/STM32G4xx_HAL_Driver/Src/stm32g4xx_hal_pwr_ex.c **** 
 432:Drivers/STM32G4xx_HAL_Driver/Src/stm32g4xx_hal_pwr_ex.c ****   switch (GPIO)
 769              		.loc 1 432 3 view .LVU189
 770 0000 0628     		cmp	r0, #6
 771 0002 56D8     		bhi	.L75
 772 0004 DFE800F0 		tbb	[pc, r0]
 773              	.L68:
 774 0008 04       		.byte	(.L74-.L68)/2
 775 0009 12       		.byte	(.L73-.L68)/2
 776 000a 1E       		.byte	(.L72-.L68)/2
 777 000b 28       		.byte	(.L71-.L68)/2
 778 000c 32       		.byte	(.L70-.L68)/2
 779 000d 3C       		.byte	(.L69-.L68)/2
ARM GAS  /tmp/cc9EFiwU.s 			page 23


 780 000e 47       		.byte	(.L67-.L68)/2
 781 000f 00       		.p2align 1
 782              	.L74:
 433:Drivers/STM32G4xx_HAL_Driver/Src/stm32g4xx_hal_pwr_ex.c ****   {
 434:Drivers/STM32G4xx_HAL_Driver/Src/stm32g4xx_hal_pwr_ex.c ****     case PWR_GPIO_A:
 435:Drivers/STM32G4xx_HAL_Driver/Src/stm32g4xx_hal_pwr_ex.c ****        SET_BIT(PWR->PDCRA, (GPIONumber & (~(PWR_GPIO_BIT_13|PWR_GPIO_BIT_15))));
 783              		.loc 1 435 8 view .LVU190
 784 0010 294B     		ldr	r3, .L76
 785 0012 5A6A     		ldr	r2, [r3, #36]
 786 0014 21F42040 		bic	r0, r1, #40960
 787              	.LVL69:
 788              		.loc 1 435 8 is_stmt 0 view .LVU191
 789 0018 0243     		orrs	r2, r2, r0
 790 001a 5A62     		str	r2, [r3, #36]
 436:Drivers/STM32G4xx_HAL_Driver/Src/stm32g4xx_hal_pwr_ex.c ****        CLEAR_BIT(PWR->PUCRA, (GPIONumber & (~(PWR_GPIO_BIT_14))));
 791              		.loc 1 436 8 is_stmt 1 view .LVU192
 792 001c 1A6A     		ldr	r2, [r3, #32]
 793 001e 21F48041 		bic	r1, r1, #16384
 794              	.LVL70:
 795              		.loc 1 436 8 is_stmt 0 view .LVU193
 796 0022 22EA0102 		bic	r2, r2, r1
 797 0026 1A62     		str	r2, [r3, #32]
 437:Drivers/STM32G4xx_HAL_Driver/Src/stm32g4xx_hal_pwr_ex.c ****        break;
 798              		.loc 1 437 8 is_stmt 1 view .LVU194
 427:Drivers/STM32G4xx_HAL_Driver/Src/stm32g4xx_hal_pwr_ex.c **** 
 799              		.loc 1 427 21 is_stmt 0 view .LVU195
 800 0028 0020     		movs	r0, #0
 801              		.loc 1 437 8 view .LVU196
 802 002a 7047     		bx	lr
 803              	.LVL71:
 804              	.L73:
 438:Drivers/STM32G4xx_HAL_Driver/Src/stm32g4xx_hal_pwr_ex.c ****     case PWR_GPIO_B:
 439:Drivers/STM32G4xx_HAL_Driver/Src/stm32g4xx_hal_pwr_ex.c ****        SET_BIT(PWR->PDCRB, (GPIONumber & (~(PWR_GPIO_BIT_4))));
 805              		.loc 1 439 8 is_stmt 1 view .LVU197
 806 002c 224B     		ldr	r3, .L76
 807 002e DA6A     		ldr	r2, [r3, #44]
 808 0030 21F01000 		bic	r0, r1, #16
 809              	.LVL72:
 810              		.loc 1 439 8 is_stmt 0 view .LVU198
 811 0034 0243     		orrs	r2, r2, r0
 812 0036 DA62     		str	r2, [r3, #44]
 440:Drivers/STM32G4xx_HAL_Driver/Src/stm32g4xx_hal_pwr_ex.c ****        CLEAR_BIT(PWR->PUCRB, GPIONumber);
 813              		.loc 1 440 8 is_stmt 1 view .LVU199
 814 0038 9A6A     		ldr	r2, [r3, #40]
 815 003a 22EA0101 		bic	r1, r2, r1
 816              	.LVL73:
 817              		.loc 1 440 8 is_stmt 0 view .LVU200
 818 003e 9962     		str	r1, [r3, #40]
 441:Drivers/STM32G4xx_HAL_Driver/Src/stm32g4xx_hal_pwr_ex.c ****        break;
 819              		.loc 1 441 8 is_stmt 1 view .LVU201
 427:Drivers/STM32G4xx_HAL_Driver/Src/stm32g4xx_hal_pwr_ex.c **** 
 820              		.loc 1 427 21 is_stmt 0 view .LVU202
 821 0040 0020     		movs	r0, #0
 822              		.loc 1 441 8 view .LVU203
 823 0042 7047     		bx	lr
 824              	.LVL74:
 825              	.L72:
ARM GAS  /tmp/cc9EFiwU.s 			page 24


 442:Drivers/STM32G4xx_HAL_Driver/Src/stm32g4xx_hal_pwr_ex.c ****     case PWR_GPIO_C:
 443:Drivers/STM32G4xx_HAL_Driver/Src/stm32g4xx_hal_pwr_ex.c ****        SET_BIT(PWR->PDCRC, GPIONumber);
 826              		.loc 1 443 8 is_stmt 1 view .LVU204
 827 0044 1C4B     		ldr	r3, .L76
 828 0046 5A6B     		ldr	r2, [r3, #52]
 829 0048 0A43     		orrs	r2, r2, r1
 830 004a 5A63     		str	r2, [r3, #52]
 444:Drivers/STM32G4xx_HAL_Driver/Src/stm32g4xx_hal_pwr_ex.c ****        CLEAR_BIT(PWR->PUCRC, GPIONumber);
 831              		.loc 1 444 8 view .LVU205
 832 004c 1A6B     		ldr	r2, [r3, #48]
 833 004e 22EA0101 		bic	r1, r2, r1
 834              	.LVL75:
 835              		.loc 1 444 8 is_stmt 0 view .LVU206
 836 0052 1963     		str	r1, [r3, #48]
 445:Drivers/STM32G4xx_HAL_Driver/Src/stm32g4xx_hal_pwr_ex.c ****        break;
 837              		.loc 1 445 8 is_stmt 1 view .LVU207
 427:Drivers/STM32G4xx_HAL_Driver/Src/stm32g4xx_hal_pwr_ex.c **** 
 838              		.loc 1 427 21 is_stmt 0 view .LVU208
 839 0054 0020     		movs	r0, #0
 840              	.LVL76:
 841              		.loc 1 445 8 view .LVU209
 842 0056 7047     		bx	lr
 843              	.LVL77:
 844              	.L71:
 446:Drivers/STM32G4xx_HAL_Driver/Src/stm32g4xx_hal_pwr_ex.c ****     case PWR_GPIO_D:
 447:Drivers/STM32G4xx_HAL_Driver/Src/stm32g4xx_hal_pwr_ex.c ****        SET_BIT(PWR->PDCRD, GPIONumber);
 845              		.loc 1 447 8 is_stmt 1 view .LVU210
 846 0058 174B     		ldr	r3, .L76
 847 005a DA6B     		ldr	r2, [r3, #60]
 848 005c 0A43     		orrs	r2, r2, r1
 849 005e DA63     		str	r2, [r3, #60]
 448:Drivers/STM32G4xx_HAL_Driver/Src/stm32g4xx_hal_pwr_ex.c ****        CLEAR_BIT(PWR->PUCRD, GPIONumber);
 850              		.loc 1 448 8 view .LVU211
 851 0060 9A6B     		ldr	r2, [r3, #56]
 852 0062 22EA0101 		bic	r1, r2, r1
 853              	.LVL78:
 854              		.loc 1 448 8 is_stmt 0 view .LVU212
 855 0066 9963     		str	r1, [r3, #56]
 449:Drivers/STM32G4xx_HAL_Driver/Src/stm32g4xx_hal_pwr_ex.c ****        break;
 856              		.loc 1 449 8 is_stmt 1 view .LVU213
 427:Drivers/STM32G4xx_HAL_Driver/Src/stm32g4xx_hal_pwr_ex.c **** 
 857              		.loc 1 427 21 is_stmt 0 view .LVU214
 858 0068 0020     		movs	r0, #0
 859              	.LVL79:
 860              		.loc 1 449 8 view .LVU215
 861 006a 7047     		bx	lr
 862              	.LVL80:
 863              	.L70:
 450:Drivers/STM32G4xx_HAL_Driver/Src/stm32g4xx_hal_pwr_ex.c ****     case PWR_GPIO_E:
 451:Drivers/STM32G4xx_HAL_Driver/Src/stm32g4xx_hal_pwr_ex.c ****        SET_BIT(PWR->PDCRE, GPIONumber);
 864              		.loc 1 451 8 is_stmt 1 view .LVU216
 865 006c 124B     		ldr	r3, .L76
 866 006e 5A6C     		ldr	r2, [r3, #68]
 867 0070 0A43     		orrs	r2, r2, r1
 868 0072 5A64     		str	r2, [r3, #68]
 452:Drivers/STM32G4xx_HAL_Driver/Src/stm32g4xx_hal_pwr_ex.c ****        CLEAR_BIT(PWR->PUCRE, GPIONumber);
 869              		.loc 1 452 8 view .LVU217
ARM GAS  /tmp/cc9EFiwU.s 			page 25


 870 0074 1A6C     		ldr	r2, [r3, #64]
 871 0076 22EA0101 		bic	r1, r2, r1
 872              	.LVL81:
 873              		.loc 1 452 8 is_stmt 0 view .LVU218
 874 007a 1964     		str	r1, [r3, #64]
 453:Drivers/STM32G4xx_HAL_Driver/Src/stm32g4xx_hal_pwr_ex.c ****        break;
 875              		.loc 1 453 8 is_stmt 1 view .LVU219
 427:Drivers/STM32G4xx_HAL_Driver/Src/stm32g4xx_hal_pwr_ex.c **** 
 876              		.loc 1 427 21 is_stmt 0 view .LVU220
 877 007c 0020     		movs	r0, #0
 878              	.LVL82:
 879              		.loc 1 453 8 view .LVU221
 880 007e 7047     		bx	lr
 881              	.LVL83:
 882              	.L69:
 454:Drivers/STM32G4xx_HAL_Driver/Src/stm32g4xx_hal_pwr_ex.c ****     case PWR_GPIO_F:
 455:Drivers/STM32G4xx_HAL_Driver/Src/stm32g4xx_hal_pwr_ex.c ****        SET_BIT(PWR->PDCRF, (GPIONumber & PWR_PORTF_AVAILABLE_PINS));
 883              		.loc 1 455 8 is_stmt 1 view .LVU222
 884 0080 0D4B     		ldr	r3, .L76
 885 0082 DA6C     		ldr	r2, [r3, #76]
 886 0084 89B2     		uxth	r1, r1
 887              	.LVL84:
 888              		.loc 1 455 8 is_stmt 0 view .LVU223
 889 0086 0A43     		orrs	r2, r2, r1
 890 0088 DA64     		str	r2, [r3, #76]
 456:Drivers/STM32G4xx_HAL_Driver/Src/stm32g4xx_hal_pwr_ex.c ****        CLEAR_BIT(PWR->PUCRF, (GPIONumber & PWR_PORTF_AVAILABLE_PINS));
 891              		.loc 1 456 8 is_stmt 1 view .LVU224
 892 008a 9A6C     		ldr	r2, [r3, #72]
 893 008c 22EA0101 		bic	r1, r2, r1
 894 0090 9964     		str	r1, [r3, #72]
 457:Drivers/STM32G4xx_HAL_Driver/Src/stm32g4xx_hal_pwr_ex.c ****        break;
 895              		.loc 1 457 8 view .LVU225
 427:Drivers/STM32G4xx_HAL_Driver/Src/stm32g4xx_hal_pwr_ex.c **** 
 896              		.loc 1 427 21 is_stmt 0 view .LVU226
 897 0092 0020     		movs	r0, #0
 898              	.LVL85:
 899              		.loc 1 457 8 view .LVU227
 900 0094 7047     		bx	lr
 901              	.LVL86:
 902              	.L67:
 458:Drivers/STM32G4xx_HAL_Driver/Src/stm32g4xx_hal_pwr_ex.c ****     case PWR_GPIO_G:
 459:Drivers/STM32G4xx_HAL_Driver/Src/stm32g4xx_hal_pwr_ex.c ****        SET_BIT(PWR->PDCRG, ((GPIONumber & PWR_PORTG_AVAILABLE_PINS) & (~(PWR_GPIO_BIT_10))));
 903              		.loc 1 459 8 is_stmt 1 view .LVU228
 904 0096 084B     		ldr	r3, .L76
 905 0098 5A6D     		ldr	r2, [r3, #84]
 906 009a C1F30900 		ubfx	r0, r1, #0, #10
 907              	.LVL87:
 908              		.loc 1 459 8 is_stmt 0 view .LVU229
 909 009e 0243     		orrs	r2, r2, r0
 910 00a0 5A65     		str	r2, [r3, #84]
 460:Drivers/STM32G4xx_HAL_Driver/Src/stm32g4xx_hal_pwr_ex.c ****        CLEAR_BIT(PWR->PUCRG, (GPIONumber & PWR_PORTG_AVAILABLE_PINS));
 911              		.loc 1 460 8 is_stmt 1 view .LVU230
 912 00a2 1A6D     		ldr	r2, [r3, #80]
 913 00a4 C1F30A01 		ubfx	r1, r1, #0, #11
 914              	.LVL88:
 915              		.loc 1 460 8 is_stmt 0 view .LVU231
 916 00a8 22EA0101 		bic	r1, r2, r1
ARM GAS  /tmp/cc9EFiwU.s 			page 26


 917 00ac 1965     		str	r1, [r3, #80]
 461:Drivers/STM32G4xx_HAL_Driver/Src/stm32g4xx_hal_pwr_ex.c ****        break;
 918              		.loc 1 461 8 is_stmt 1 view .LVU232
 427:Drivers/STM32G4xx_HAL_Driver/Src/stm32g4xx_hal_pwr_ex.c **** 
 919              		.loc 1 427 21 is_stmt 0 view .LVU233
 920 00ae 0020     		movs	r0, #0
 921              		.loc 1 461 8 view .LVU234
 922 00b0 7047     		bx	lr
 923              	.LVL89:
 924              	.L75:
 462:Drivers/STM32G4xx_HAL_Driver/Src/stm32g4xx_hal_pwr_ex.c ****     default:
 463:Drivers/STM32G4xx_HAL_Driver/Src/stm32g4xx_hal_pwr_ex.c ****       status = HAL_ERROR;
 925              		.loc 1 463 14 view .LVU235
 926 00b2 0120     		movs	r0, #1
 927              	.LVL90:
 464:Drivers/STM32G4xx_HAL_Driver/Src/stm32g4xx_hal_pwr_ex.c ****       break;
 465:Drivers/STM32G4xx_HAL_Driver/Src/stm32g4xx_hal_pwr_ex.c ****   }
 466:Drivers/STM32G4xx_HAL_Driver/Src/stm32g4xx_hal_pwr_ex.c **** 
 467:Drivers/STM32G4xx_HAL_Driver/Src/stm32g4xx_hal_pwr_ex.c ****   return status;
 928              		.loc 1 467 3 is_stmt 1 view .LVU236
 468:Drivers/STM32G4xx_HAL_Driver/Src/stm32g4xx_hal_pwr_ex.c **** }
 929              		.loc 1 468 1 is_stmt 0 view .LVU237
 930 00b4 7047     		bx	lr
 931              	.L77:
 932 00b6 00BF     		.align	2
 933              	.L76:
 934 00b8 00700040 		.word	1073770496
 935              		.cfi_endproc
 936              	.LFE333:
 938              		.section	.text.HAL_PWREx_DisableGPIOPullDown,"ax",%progbits
 939              		.align	1
 940              		.global	HAL_PWREx_DisableGPIOPullDown
 941              		.syntax unified
 942              		.thumb
 943              		.thumb_func
 944              		.fpu fpv4-sp-d16
 946              	HAL_PWREx_DisableGPIOPullDown:
 947              	.LVL91:
 948              	.LFB334:
 469:Drivers/STM32G4xx_HAL_Driver/Src/stm32g4xx_hal_pwr_ex.c **** 
 470:Drivers/STM32G4xx_HAL_Driver/Src/stm32g4xx_hal_pwr_ex.c **** 
 471:Drivers/STM32G4xx_HAL_Driver/Src/stm32g4xx_hal_pwr_ex.c **** /**
 472:Drivers/STM32G4xx_HAL_Driver/Src/stm32g4xx_hal_pwr_ex.c ****   * @brief Disable GPIO pull-down state in Standby and Shutdown modes.
 473:Drivers/STM32G4xx_HAL_Driver/Src/stm32g4xx_hal_pwr_ex.c ****   * @note  Reset the relevant PDy bits of PWR_PDCRx register used to configure the I/O
 474:Drivers/STM32G4xx_HAL_Driver/Src/stm32g4xx_hal_pwr_ex.c ****   *        in pull-down state in Standby and Shutdown modes.
 475:Drivers/STM32G4xx_HAL_Driver/Src/stm32g4xx_hal_pwr_ex.c ****   * @note  Even if a PDy bit to reset is reserved, the other PDy bits entered as input
 476:Drivers/STM32G4xx_HAL_Driver/Src/stm32g4xx_hal_pwr_ex.c ****   *        parameter at the same time are reset.
 477:Drivers/STM32G4xx_HAL_Driver/Src/stm32g4xx_hal_pwr_ex.c ****   * @param  GPIO: Specifies the IO port. This parameter can be PWR_GPIO_A..PWR_GPIO_G
 478:Drivers/STM32G4xx_HAL_Driver/Src/stm32g4xx_hal_pwr_ex.c ****   *         (or PWR_GPIO_I depending on the devices) to select the GPIO peripheral.
 479:Drivers/STM32G4xx_HAL_Driver/Src/stm32g4xx_hal_pwr_ex.c ****   * @param  GPIONumber: Specify the I/O pins numbers.
 480:Drivers/STM32G4xx_HAL_Driver/Src/stm32g4xx_hal_pwr_ex.c ****   *         This parameter can be one of the following values:
 481:Drivers/STM32G4xx_HAL_Driver/Src/stm32g4xx_hal_pwr_ex.c ****   *         PWR_GPIO_BIT_0, ..., PWR_GPIO_BIT_15 (except for the port where less
 482:Drivers/STM32G4xx_HAL_Driver/Src/stm32g4xx_hal_pwr_ex.c ****   *         I/O pins are available) or the logical OR of several of them to reset
 483:Drivers/STM32G4xx_HAL_Driver/Src/stm32g4xx_hal_pwr_ex.c ****   *         several bits for a given port in a single API call.
 484:Drivers/STM32G4xx_HAL_Driver/Src/stm32g4xx_hal_pwr_ex.c ****   * @retval HAL Status
 485:Drivers/STM32G4xx_HAL_Driver/Src/stm32g4xx_hal_pwr_ex.c ****   */
 486:Drivers/STM32G4xx_HAL_Driver/Src/stm32g4xx_hal_pwr_ex.c **** HAL_StatusTypeDef HAL_PWREx_DisableGPIOPullDown(uint32_t GPIO, uint32_t GPIONumber)
ARM GAS  /tmp/cc9EFiwU.s 			page 27


 487:Drivers/STM32G4xx_HAL_Driver/Src/stm32g4xx_hal_pwr_ex.c **** {
 949              		.loc 1 487 1 is_stmt 1 view -0
 950              		.cfi_startproc
 951              		@ args = 0, pretend = 0, frame = 0
 952              		@ frame_needed = 0, uses_anonymous_args = 0
 953              		@ link register save eliminated.
 488:Drivers/STM32G4xx_HAL_Driver/Src/stm32g4xx_hal_pwr_ex.c ****   HAL_StatusTypeDef status = HAL_OK;
 954              		.loc 1 488 3 view .LVU239
 489:Drivers/STM32G4xx_HAL_Driver/Src/stm32g4xx_hal_pwr_ex.c **** 
 490:Drivers/STM32G4xx_HAL_Driver/Src/stm32g4xx_hal_pwr_ex.c ****   assert_param(IS_PWR_GPIO(GPIO));
 955              		.loc 1 490 3 view .LVU240
 491:Drivers/STM32G4xx_HAL_Driver/Src/stm32g4xx_hal_pwr_ex.c ****   assert_param(IS_PWR_GPIO_BIT_NUMBER(GPIONumber));
 956              		.loc 1 491 3 view .LVU241
 492:Drivers/STM32G4xx_HAL_Driver/Src/stm32g4xx_hal_pwr_ex.c **** 
 493:Drivers/STM32G4xx_HAL_Driver/Src/stm32g4xx_hal_pwr_ex.c ****   switch (GPIO)
 957              		.loc 1 493 3 view .LVU242
 958 0000 0628     		cmp	r0, #6
 959 0002 3DD8     		bhi	.L88
 960 0004 DFE800F0 		tbb	[pc, r0]
 961              	.L81:
 962 0008 04       		.byte	(.L87-.L81)/2
 963 0009 0D       		.byte	(.L86-.L81)/2
 964 000a 16       		.byte	(.L85-.L81)/2
 965 000b 1D       		.byte	(.L84-.L81)/2
 966 000c 24       		.byte	(.L83-.L81)/2
 967 000d 2B       		.byte	(.L82-.L81)/2
 968 000e 33       		.byte	(.L80-.L81)/2
 969 000f 00       		.p2align 1
 970              	.L87:
 494:Drivers/STM32G4xx_HAL_Driver/Src/stm32g4xx_hal_pwr_ex.c ****   {
 495:Drivers/STM32G4xx_HAL_Driver/Src/stm32g4xx_hal_pwr_ex.c ****     case PWR_GPIO_A:
 496:Drivers/STM32G4xx_HAL_Driver/Src/stm32g4xx_hal_pwr_ex.c ****        CLEAR_BIT(PWR->PDCRA, (GPIONumber & (~(PWR_GPIO_BIT_13|PWR_GPIO_BIT_15))));
 971              		.loc 1 496 8 view .LVU243
 972 0010 1C4A     		ldr	r2, .L89
 973 0012 536A     		ldr	r3, [r2, #36]
 974 0014 21F42041 		bic	r1, r1, #40960
 975              	.LVL92:
 976              		.loc 1 496 8 is_stmt 0 view .LVU244
 977 0018 23EA0103 		bic	r3, r3, r1
 978 001c 5362     		str	r3, [r2, #36]
 497:Drivers/STM32G4xx_HAL_Driver/Src/stm32g4xx_hal_pwr_ex.c ****        break;
 979              		.loc 1 497 8 is_stmt 1 view .LVU245
 488:Drivers/STM32G4xx_HAL_Driver/Src/stm32g4xx_hal_pwr_ex.c **** 
 980              		.loc 1 488 21 is_stmt 0 view .LVU246
 981 001e 0020     		movs	r0, #0
 982              	.LVL93:
 983              		.loc 1 497 8 view .LVU247
 984 0020 7047     		bx	lr
 985              	.LVL94:
 986              	.L86:
 498:Drivers/STM32G4xx_HAL_Driver/Src/stm32g4xx_hal_pwr_ex.c ****     case PWR_GPIO_B:
 499:Drivers/STM32G4xx_HAL_Driver/Src/stm32g4xx_hal_pwr_ex.c ****        CLEAR_BIT(PWR->PDCRB, (GPIONumber & (~(PWR_GPIO_BIT_4))));
 987              		.loc 1 499 8 is_stmt 1 view .LVU248
 988 0022 184A     		ldr	r2, .L89
 989 0024 D36A     		ldr	r3, [r2, #44]
 990 0026 21F01001 		bic	r1, r1, #16
 991              	.LVL95:
ARM GAS  /tmp/cc9EFiwU.s 			page 28


 992              		.loc 1 499 8 is_stmt 0 view .LVU249
 993 002a 23EA0103 		bic	r3, r3, r1
 994 002e D362     		str	r3, [r2, #44]
 500:Drivers/STM32G4xx_HAL_Driver/Src/stm32g4xx_hal_pwr_ex.c ****        break;
 995              		.loc 1 500 8 is_stmt 1 view .LVU250
 488:Drivers/STM32G4xx_HAL_Driver/Src/stm32g4xx_hal_pwr_ex.c **** 
 996              		.loc 1 488 21 is_stmt 0 view .LVU251
 997 0030 0020     		movs	r0, #0
 998              	.LVL96:
 999              		.loc 1 500 8 view .LVU252
 1000 0032 7047     		bx	lr
 1001              	.LVL97:
 1002              	.L85:
 501:Drivers/STM32G4xx_HAL_Driver/Src/stm32g4xx_hal_pwr_ex.c ****     case PWR_GPIO_C:
 502:Drivers/STM32G4xx_HAL_Driver/Src/stm32g4xx_hal_pwr_ex.c ****        CLEAR_BIT(PWR->PDCRC, GPIONumber);
 1003              		.loc 1 502 8 is_stmt 1 view .LVU253
 1004 0034 134A     		ldr	r2, .L89
 1005 0036 536B     		ldr	r3, [r2, #52]
 1006 0038 23EA0101 		bic	r1, r3, r1
 1007              	.LVL98:
 1008              		.loc 1 502 8 is_stmt 0 view .LVU254
 1009 003c 5163     		str	r1, [r2, #52]
 503:Drivers/STM32G4xx_HAL_Driver/Src/stm32g4xx_hal_pwr_ex.c ****        break;
 1010              		.loc 1 503 8 is_stmt 1 view .LVU255
 488:Drivers/STM32G4xx_HAL_Driver/Src/stm32g4xx_hal_pwr_ex.c **** 
 1011              		.loc 1 488 21 is_stmt 0 view .LVU256
 1012 003e 0020     		movs	r0, #0
 1013              	.LVL99:
 1014              		.loc 1 503 8 view .LVU257
 1015 0040 7047     		bx	lr
 1016              	.LVL100:
 1017              	.L84:
 504:Drivers/STM32G4xx_HAL_Driver/Src/stm32g4xx_hal_pwr_ex.c ****     case PWR_GPIO_D:
 505:Drivers/STM32G4xx_HAL_Driver/Src/stm32g4xx_hal_pwr_ex.c ****        CLEAR_BIT(PWR->PDCRD, GPIONumber);
 1018              		.loc 1 505 8 is_stmt 1 view .LVU258
 1019 0042 104A     		ldr	r2, .L89
 1020 0044 D36B     		ldr	r3, [r2, #60]
 1021 0046 23EA0101 		bic	r1, r3, r1
 1022              	.LVL101:
 1023              		.loc 1 505 8 is_stmt 0 view .LVU259
 1024 004a D163     		str	r1, [r2, #60]
 506:Drivers/STM32G4xx_HAL_Driver/Src/stm32g4xx_hal_pwr_ex.c ****        break;
 1025              		.loc 1 506 8 is_stmt 1 view .LVU260
 488:Drivers/STM32G4xx_HAL_Driver/Src/stm32g4xx_hal_pwr_ex.c **** 
 1026              		.loc 1 488 21 is_stmt 0 view .LVU261
 1027 004c 0020     		movs	r0, #0
 1028              	.LVL102:
 1029              		.loc 1 506 8 view .LVU262
 1030 004e 7047     		bx	lr
 1031              	.LVL103:
 1032              	.L83:
 507:Drivers/STM32G4xx_HAL_Driver/Src/stm32g4xx_hal_pwr_ex.c ****     case PWR_GPIO_E:
 508:Drivers/STM32G4xx_HAL_Driver/Src/stm32g4xx_hal_pwr_ex.c ****        CLEAR_BIT(PWR->PDCRE, GPIONumber);
 1033              		.loc 1 508 8 is_stmt 1 view .LVU263
 1034 0050 0C4A     		ldr	r2, .L89
 1035 0052 536C     		ldr	r3, [r2, #68]
 1036 0054 23EA0101 		bic	r1, r3, r1
ARM GAS  /tmp/cc9EFiwU.s 			page 29


 1037              	.LVL104:
 1038              		.loc 1 508 8 is_stmt 0 view .LVU264
 1039 0058 5164     		str	r1, [r2, #68]
 509:Drivers/STM32G4xx_HAL_Driver/Src/stm32g4xx_hal_pwr_ex.c ****        break;
 1040              		.loc 1 509 8 is_stmt 1 view .LVU265
 488:Drivers/STM32G4xx_HAL_Driver/Src/stm32g4xx_hal_pwr_ex.c **** 
 1041              		.loc 1 488 21 is_stmt 0 view .LVU266
 1042 005a 0020     		movs	r0, #0
 1043              	.LVL105:
 1044              		.loc 1 509 8 view .LVU267
 1045 005c 7047     		bx	lr
 1046              	.LVL106:
 1047              	.L82:
 510:Drivers/STM32G4xx_HAL_Driver/Src/stm32g4xx_hal_pwr_ex.c ****     case PWR_GPIO_F:
 511:Drivers/STM32G4xx_HAL_Driver/Src/stm32g4xx_hal_pwr_ex.c ****        CLEAR_BIT(PWR->PDCRF, (GPIONumber & PWR_PORTF_AVAILABLE_PINS));
 1048              		.loc 1 511 8 is_stmt 1 view .LVU268
 1049 005e 094A     		ldr	r2, .L89
 1050 0060 D36C     		ldr	r3, [r2, #76]
 1051 0062 89B2     		uxth	r1, r1
 1052              	.LVL107:
 1053              		.loc 1 511 8 is_stmt 0 view .LVU269
 1054 0064 23EA0103 		bic	r3, r3, r1
 1055 0068 D364     		str	r3, [r2, #76]
 512:Drivers/STM32G4xx_HAL_Driver/Src/stm32g4xx_hal_pwr_ex.c ****        break;
 1056              		.loc 1 512 8 is_stmt 1 view .LVU270
 488:Drivers/STM32G4xx_HAL_Driver/Src/stm32g4xx_hal_pwr_ex.c **** 
 1057              		.loc 1 488 21 is_stmt 0 view .LVU271
 1058 006a 0020     		movs	r0, #0
 1059              	.LVL108:
 1060              		.loc 1 512 8 view .LVU272
 1061 006c 7047     		bx	lr
 1062              	.LVL109:
 1063              	.L80:
 513:Drivers/STM32G4xx_HAL_Driver/Src/stm32g4xx_hal_pwr_ex.c ****     case PWR_GPIO_G:
 514:Drivers/STM32G4xx_HAL_Driver/Src/stm32g4xx_hal_pwr_ex.c ****        CLEAR_BIT(PWR->PDCRG, ((GPIONumber & PWR_PORTG_AVAILABLE_PINS) & (~(PWR_GPIO_BIT_10))));
 1064              		.loc 1 514 8 is_stmt 1 view .LVU273
 1065 006e 054A     		ldr	r2, .L89
 1066 0070 536D     		ldr	r3, [r2, #84]
 1067 0072 C1F30901 		ubfx	r1, r1, #0, #10
 1068              	.LVL110:
 1069              		.loc 1 514 8 is_stmt 0 view .LVU274
 1070 0076 23EA0101 		bic	r1, r3, r1
 1071 007a 5165     		str	r1, [r2, #84]
 515:Drivers/STM32G4xx_HAL_Driver/Src/stm32g4xx_hal_pwr_ex.c ****        break;
 1072              		.loc 1 515 8 is_stmt 1 view .LVU275
 488:Drivers/STM32G4xx_HAL_Driver/Src/stm32g4xx_hal_pwr_ex.c **** 
 1073              		.loc 1 488 21 is_stmt 0 view .LVU276
 1074 007c 0020     		movs	r0, #0
 1075              	.LVL111:
 1076              		.loc 1 515 8 view .LVU277
 1077 007e 7047     		bx	lr
 1078              	.LVL112:
 1079              	.L88:
 516:Drivers/STM32G4xx_HAL_Driver/Src/stm32g4xx_hal_pwr_ex.c ****     default:
 517:Drivers/STM32G4xx_HAL_Driver/Src/stm32g4xx_hal_pwr_ex.c ****       status = HAL_ERROR;
 1080              		.loc 1 517 14 view .LVU278
 1081 0080 0120     		movs	r0, #1
ARM GAS  /tmp/cc9EFiwU.s 			page 30


 1082              	.LVL113:
 518:Drivers/STM32G4xx_HAL_Driver/Src/stm32g4xx_hal_pwr_ex.c ****       break;
 519:Drivers/STM32G4xx_HAL_Driver/Src/stm32g4xx_hal_pwr_ex.c ****   }
 520:Drivers/STM32G4xx_HAL_Driver/Src/stm32g4xx_hal_pwr_ex.c **** 
 521:Drivers/STM32G4xx_HAL_Driver/Src/stm32g4xx_hal_pwr_ex.c ****   return status;
 1083              		.loc 1 521 3 is_stmt 1 view .LVU279
 522:Drivers/STM32G4xx_HAL_Driver/Src/stm32g4xx_hal_pwr_ex.c **** }
 1084              		.loc 1 522 1 is_stmt 0 view .LVU280
 1085 0082 7047     		bx	lr
 1086              	.L90:
 1087              		.align	2
 1088              	.L89:
 1089 0084 00700040 		.word	1073770496
 1090              		.cfi_endproc
 1091              	.LFE334:
 1093              		.section	.text.HAL_PWREx_EnablePullUpPullDownConfig,"ax",%progbits
 1094              		.align	1
 1095              		.global	HAL_PWREx_EnablePullUpPullDownConfig
 1096              		.syntax unified
 1097              		.thumb
 1098              		.thumb_func
 1099              		.fpu fpv4-sp-d16
 1101              	HAL_PWREx_EnablePullUpPullDownConfig:
 1102              	.LFB335:
 523:Drivers/STM32G4xx_HAL_Driver/Src/stm32g4xx_hal_pwr_ex.c **** 
 524:Drivers/STM32G4xx_HAL_Driver/Src/stm32g4xx_hal_pwr_ex.c **** 
 525:Drivers/STM32G4xx_HAL_Driver/Src/stm32g4xx_hal_pwr_ex.c **** 
 526:Drivers/STM32G4xx_HAL_Driver/Src/stm32g4xx_hal_pwr_ex.c **** /**
 527:Drivers/STM32G4xx_HAL_Driver/Src/stm32g4xx_hal_pwr_ex.c ****   * @brief Enable pull-up and pull-down configuration.
 528:Drivers/STM32G4xx_HAL_Driver/Src/stm32g4xx_hal_pwr_ex.c ****   * @note  When APC bit is set, the I/O pull-up and pull-down configurations defined in
 529:Drivers/STM32G4xx_HAL_Driver/Src/stm32g4xx_hal_pwr_ex.c ****   *        PWR_PUCRx and PWR_PDCRx registers are applied in Standby and Shutdown modes.
 530:Drivers/STM32G4xx_HAL_Driver/Src/stm32g4xx_hal_pwr_ex.c ****   * @note  Pull-up set by PUy bit of PWR_PUCRx register is not activated if the corresponding
 531:Drivers/STM32G4xx_HAL_Driver/Src/stm32g4xx_hal_pwr_ex.c ****   *        PDy bit of PWR_PDCRx register is also set (pull-down configuration priority is higher).
 532:Drivers/STM32G4xx_HAL_Driver/Src/stm32g4xx_hal_pwr_ex.c ****   *        HAL_PWREx_EnableGPIOPullUp() and HAL_PWREx_EnableGPIOPullDown() API's ensure there
 533:Drivers/STM32G4xx_HAL_Driver/Src/stm32g4xx_hal_pwr_ex.c ****   *        is no conflict when setting PUy or PDy bit.
 534:Drivers/STM32G4xx_HAL_Driver/Src/stm32g4xx_hal_pwr_ex.c ****   * @retval None
 535:Drivers/STM32G4xx_HAL_Driver/Src/stm32g4xx_hal_pwr_ex.c ****   */
 536:Drivers/STM32G4xx_HAL_Driver/Src/stm32g4xx_hal_pwr_ex.c **** void HAL_PWREx_EnablePullUpPullDownConfig(void)
 537:Drivers/STM32G4xx_HAL_Driver/Src/stm32g4xx_hal_pwr_ex.c **** {
 1103              		.loc 1 537 1 is_stmt 1 view -0
 1104              		.cfi_startproc
 1105              		@ args = 0, pretend = 0, frame = 0
 1106              		@ frame_needed = 0, uses_anonymous_args = 0
 1107              		@ link register save eliminated.
 538:Drivers/STM32G4xx_HAL_Driver/Src/stm32g4xx_hal_pwr_ex.c ****   SET_BIT(PWR->CR3, PWR_CR3_APC);
 1108              		.loc 1 538 3 view .LVU282
 1109 0000 024A     		ldr	r2, .L92
 1110 0002 9368     		ldr	r3, [r2, #8]
 1111 0004 43F48063 		orr	r3, r3, #1024
 1112 0008 9360     		str	r3, [r2, #8]
 539:Drivers/STM32G4xx_HAL_Driver/Src/stm32g4xx_hal_pwr_ex.c **** }
 1113              		.loc 1 539 1 is_stmt 0 view .LVU283
 1114 000a 7047     		bx	lr
 1115              	.L93:
 1116              		.align	2
 1117              	.L92:
 1118 000c 00700040 		.word	1073770496
ARM GAS  /tmp/cc9EFiwU.s 			page 31


 1119              		.cfi_endproc
 1120              	.LFE335:
 1122              		.section	.text.HAL_PWREx_DisablePullUpPullDownConfig,"ax",%progbits
 1123              		.align	1
 1124              		.global	HAL_PWREx_DisablePullUpPullDownConfig
 1125              		.syntax unified
 1126              		.thumb
 1127              		.thumb_func
 1128              		.fpu fpv4-sp-d16
 1130              	HAL_PWREx_DisablePullUpPullDownConfig:
 1131              	.LFB336:
 540:Drivers/STM32G4xx_HAL_Driver/Src/stm32g4xx_hal_pwr_ex.c **** 
 541:Drivers/STM32G4xx_HAL_Driver/Src/stm32g4xx_hal_pwr_ex.c **** 
 542:Drivers/STM32G4xx_HAL_Driver/Src/stm32g4xx_hal_pwr_ex.c **** /**
 543:Drivers/STM32G4xx_HAL_Driver/Src/stm32g4xx_hal_pwr_ex.c ****   * @brief Disable pull-up and pull-down configuration.
 544:Drivers/STM32G4xx_HAL_Driver/Src/stm32g4xx_hal_pwr_ex.c ****   * @note  When APC bit is cleared, the I/O pull-up and pull-down configurations defined in
 545:Drivers/STM32G4xx_HAL_Driver/Src/stm32g4xx_hal_pwr_ex.c ****   *        PWR_PUCRx and PWR_PDCRx registers are not applied in Standby and Shutdown modes.
 546:Drivers/STM32G4xx_HAL_Driver/Src/stm32g4xx_hal_pwr_ex.c ****   * @retval None
 547:Drivers/STM32G4xx_HAL_Driver/Src/stm32g4xx_hal_pwr_ex.c ****   */
 548:Drivers/STM32G4xx_HAL_Driver/Src/stm32g4xx_hal_pwr_ex.c **** void HAL_PWREx_DisablePullUpPullDownConfig(void)
 549:Drivers/STM32G4xx_HAL_Driver/Src/stm32g4xx_hal_pwr_ex.c **** {
 1132              		.loc 1 549 1 is_stmt 1 view -0
 1133              		.cfi_startproc
 1134              		@ args = 0, pretend = 0, frame = 0
 1135              		@ frame_needed = 0, uses_anonymous_args = 0
 1136              		@ link register save eliminated.
 550:Drivers/STM32G4xx_HAL_Driver/Src/stm32g4xx_hal_pwr_ex.c ****   CLEAR_BIT(PWR->CR3, PWR_CR3_APC);
 1137              		.loc 1 550 3 view .LVU285
 1138 0000 024A     		ldr	r2, .L95
 1139 0002 9368     		ldr	r3, [r2, #8]
 1140 0004 23F48063 		bic	r3, r3, #1024
 1141 0008 9360     		str	r3, [r2, #8]
 551:Drivers/STM32G4xx_HAL_Driver/Src/stm32g4xx_hal_pwr_ex.c **** }
 1142              		.loc 1 551 1 is_stmt 0 view .LVU286
 1143 000a 7047     		bx	lr
 1144              	.L96:
 1145              		.align	2
 1146              	.L95:
 1147 000c 00700040 		.word	1073770496
 1148              		.cfi_endproc
 1149              	.LFE336:
 1151              		.section	.text.HAL_PWREx_EnableSRAM2ContentRetention,"ax",%progbits
 1152              		.align	1
 1153              		.global	HAL_PWREx_EnableSRAM2ContentRetention
 1154              		.syntax unified
 1155              		.thumb
 1156              		.thumb_func
 1157              		.fpu fpv4-sp-d16
 1159              	HAL_PWREx_EnableSRAM2ContentRetention:
 1160              	.LFB337:
 552:Drivers/STM32G4xx_HAL_Driver/Src/stm32g4xx_hal_pwr_ex.c **** 
 553:Drivers/STM32G4xx_HAL_Driver/Src/stm32g4xx_hal_pwr_ex.c **** 
 554:Drivers/STM32G4xx_HAL_Driver/Src/stm32g4xx_hal_pwr_ex.c **** 
 555:Drivers/STM32G4xx_HAL_Driver/Src/stm32g4xx_hal_pwr_ex.c **** /**
 556:Drivers/STM32G4xx_HAL_Driver/Src/stm32g4xx_hal_pwr_ex.c ****   * @brief Enable SRAM2 content retention in Standby mode.
 557:Drivers/STM32G4xx_HAL_Driver/Src/stm32g4xx_hal_pwr_ex.c ****   * @note  When RRS bit is set, SRAM2 is powered by the low-power regulator in
 558:Drivers/STM32G4xx_HAL_Driver/Src/stm32g4xx_hal_pwr_ex.c ****   *         Standby mode and its content is kept.
ARM GAS  /tmp/cc9EFiwU.s 			page 32


 559:Drivers/STM32G4xx_HAL_Driver/Src/stm32g4xx_hal_pwr_ex.c ****   * @retval None
 560:Drivers/STM32G4xx_HAL_Driver/Src/stm32g4xx_hal_pwr_ex.c ****   */
 561:Drivers/STM32G4xx_HAL_Driver/Src/stm32g4xx_hal_pwr_ex.c **** void HAL_PWREx_EnableSRAM2ContentRetention(void)
 562:Drivers/STM32G4xx_HAL_Driver/Src/stm32g4xx_hal_pwr_ex.c **** {
 1161              		.loc 1 562 1 is_stmt 1 view -0
 1162              		.cfi_startproc
 1163              		@ args = 0, pretend = 0, frame = 0
 1164              		@ frame_needed = 0, uses_anonymous_args = 0
 1165              		@ link register save eliminated.
 563:Drivers/STM32G4xx_HAL_Driver/Src/stm32g4xx_hal_pwr_ex.c ****   SET_BIT(PWR->CR3, PWR_CR3_RRS);
 1166              		.loc 1 563 3 view .LVU288
 1167 0000 024A     		ldr	r2, .L98
 1168 0002 9368     		ldr	r3, [r2, #8]
 1169 0004 43F48073 		orr	r3, r3, #256
 1170 0008 9360     		str	r3, [r2, #8]
 564:Drivers/STM32G4xx_HAL_Driver/Src/stm32g4xx_hal_pwr_ex.c **** }
 1171              		.loc 1 564 1 is_stmt 0 view .LVU289
 1172 000a 7047     		bx	lr
 1173              	.L99:
 1174              		.align	2
 1175              	.L98:
 1176 000c 00700040 		.word	1073770496
 1177              		.cfi_endproc
 1178              	.LFE337:
 1180              		.section	.text.HAL_PWREx_DisableSRAM2ContentRetention,"ax",%progbits
 1181              		.align	1
 1182              		.global	HAL_PWREx_DisableSRAM2ContentRetention
 1183              		.syntax unified
 1184              		.thumb
 1185              		.thumb_func
 1186              		.fpu fpv4-sp-d16
 1188              	HAL_PWREx_DisableSRAM2ContentRetention:
 1189              	.LFB338:
 565:Drivers/STM32G4xx_HAL_Driver/Src/stm32g4xx_hal_pwr_ex.c **** 
 566:Drivers/STM32G4xx_HAL_Driver/Src/stm32g4xx_hal_pwr_ex.c **** 
 567:Drivers/STM32G4xx_HAL_Driver/Src/stm32g4xx_hal_pwr_ex.c **** /**
 568:Drivers/STM32G4xx_HAL_Driver/Src/stm32g4xx_hal_pwr_ex.c ****   * @brief Disable SRAM2 content retention in Standby mode.
 569:Drivers/STM32G4xx_HAL_Driver/Src/stm32g4xx_hal_pwr_ex.c ****   * @note  When RRS bit is reset, SRAM2 is powered off in Standby mode
 570:Drivers/STM32G4xx_HAL_Driver/Src/stm32g4xx_hal_pwr_ex.c ****   *        and its content is lost.
 571:Drivers/STM32G4xx_HAL_Driver/Src/stm32g4xx_hal_pwr_ex.c ****   * @retval None
 572:Drivers/STM32G4xx_HAL_Driver/Src/stm32g4xx_hal_pwr_ex.c ****   */
 573:Drivers/STM32G4xx_HAL_Driver/Src/stm32g4xx_hal_pwr_ex.c **** void HAL_PWREx_DisableSRAM2ContentRetention(void)
 574:Drivers/STM32G4xx_HAL_Driver/Src/stm32g4xx_hal_pwr_ex.c **** {
 1190              		.loc 1 574 1 is_stmt 1 view -0
 1191              		.cfi_startproc
 1192              		@ args = 0, pretend = 0, frame = 0
 1193              		@ frame_needed = 0, uses_anonymous_args = 0
 1194              		@ link register save eliminated.
 575:Drivers/STM32G4xx_HAL_Driver/Src/stm32g4xx_hal_pwr_ex.c ****   CLEAR_BIT(PWR->CR3, PWR_CR3_RRS);
 1195              		.loc 1 575 3 view .LVU291
 1196 0000 024A     		ldr	r2, .L101
 1197 0002 9368     		ldr	r3, [r2, #8]
 1198 0004 23F48073 		bic	r3, r3, #256
 1199 0008 9360     		str	r3, [r2, #8]
 576:Drivers/STM32G4xx_HAL_Driver/Src/stm32g4xx_hal_pwr_ex.c **** }
 1200              		.loc 1 576 1 is_stmt 0 view .LVU292
 1201 000a 7047     		bx	lr
ARM GAS  /tmp/cc9EFiwU.s 			page 33


 1202              	.L102:
 1203              		.align	2
 1204              	.L101:
 1205 000c 00700040 		.word	1073770496
 1206              		.cfi_endproc
 1207              	.LFE338:
 1209              		.section	.text.HAL_PWREx_EnablePVM1,"ax",%progbits
 1210              		.align	1
 1211              		.global	HAL_PWREx_EnablePVM1
 1212              		.syntax unified
 1213              		.thumb
 1214              		.thumb_func
 1215              		.fpu fpv4-sp-d16
 1217              	HAL_PWREx_EnablePVM1:
 1218              	.LFB339:
 577:Drivers/STM32G4xx_HAL_Driver/Src/stm32g4xx_hal_pwr_ex.c **** 
 578:Drivers/STM32G4xx_HAL_Driver/Src/stm32g4xx_hal_pwr_ex.c **** 
 579:Drivers/STM32G4xx_HAL_Driver/Src/stm32g4xx_hal_pwr_ex.c **** 
 580:Drivers/STM32G4xx_HAL_Driver/Src/stm32g4xx_hal_pwr_ex.c **** 
 581:Drivers/STM32G4xx_HAL_Driver/Src/stm32g4xx_hal_pwr_ex.c **** #if defined(PWR_CR2_PVME1)
 582:Drivers/STM32G4xx_HAL_Driver/Src/stm32g4xx_hal_pwr_ex.c **** /**
 583:Drivers/STM32G4xx_HAL_Driver/Src/stm32g4xx_hal_pwr_ex.c ****   * @brief Enable the Power Voltage Monitoring 1: VDDA versus FASTCOMP minimum voltage.
 584:Drivers/STM32G4xx_HAL_Driver/Src/stm32g4xx_hal_pwr_ex.c ****   * @retval None
 585:Drivers/STM32G4xx_HAL_Driver/Src/stm32g4xx_hal_pwr_ex.c ****   */
 586:Drivers/STM32G4xx_HAL_Driver/Src/stm32g4xx_hal_pwr_ex.c **** void HAL_PWREx_EnablePVM1(void)
 587:Drivers/STM32G4xx_HAL_Driver/Src/stm32g4xx_hal_pwr_ex.c **** {
 1219              		.loc 1 587 1 is_stmt 1 view -0
 1220              		.cfi_startproc
 1221              		@ args = 0, pretend = 0, frame = 0
 1222              		@ frame_needed = 0, uses_anonymous_args = 0
 1223              		@ link register save eliminated.
 588:Drivers/STM32G4xx_HAL_Driver/Src/stm32g4xx_hal_pwr_ex.c ****   SET_BIT(PWR->CR2, PWR_PVM_1);
 1224              		.loc 1 588 3 view .LVU294
 1225 0000 024A     		ldr	r2, .L104
 1226 0002 5368     		ldr	r3, [r2, #4]
 1227 0004 43F01003 		orr	r3, r3, #16
 1228 0008 5360     		str	r3, [r2, #4]
 589:Drivers/STM32G4xx_HAL_Driver/Src/stm32g4xx_hal_pwr_ex.c **** }
 1229              		.loc 1 589 1 is_stmt 0 view .LVU295
 1230 000a 7047     		bx	lr
 1231              	.L105:
 1232              		.align	2
 1233              	.L104:
 1234 000c 00700040 		.word	1073770496
 1235              		.cfi_endproc
 1236              	.LFE339:
 1238              		.section	.text.HAL_PWREx_DisablePVM1,"ax",%progbits
 1239              		.align	1
 1240              		.global	HAL_PWREx_DisablePVM1
 1241              		.syntax unified
 1242              		.thumb
 1243              		.thumb_func
 1244              		.fpu fpv4-sp-d16
 1246              	HAL_PWREx_DisablePVM1:
 1247              	.LFB340:
 590:Drivers/STM32G4xx_HAL_Driver/Src/stm32g4xx_hal_pwr_ex.c **** 
 591:Drivers/STM32G4xx_HAL_Driver/Src/stm32g4xx_hal_pwr_ex.c **** /**
ARM GAS  /tmp/cc9EFiwU.s 			page 34


 592:Drivers/STM32G4xx_HAL_Driver/Src/stm32g4xx_hal_pwr_ex.c ****   * @brief Disable the Power Voltage Monitoring 1: VDDA versus FASTCOMP minimum voltage.
 593:Drivers/STM32G4xx_HAL_Driver/Src/stm32g4xx_hal_pwr_ex.c ****   * @retval None
 594:Drivers/STM32G4xx_HAL_Driver/Src/stm32g4xx_hal_pwr_ex.c ****   */
 595:Drivers/STM32G4xx_HAL_Driver/Src/stm32g4xx_hal_pwr_ex.c **** void HAL_PWREx_DisablePVM1(void)
 596:Drivers/STM32G4xx_HAL_Driver/Src/stm32g4xx_hal_pwr_ex.c **** {
 1248              		.loc 1 596 1 is_stmt 1 view -0
 1249              		.cfi_startproc
 1250              		@ args = 0, pretend = 0, frame = 0
 1251              		@ frame_needed = 0, uses_anonymous_args = 0
 1252              		@ link register save eliminated.
 597:Drivers/STM32G4xx_HAL_Driver/Src/stm32g4xx_hal_pwr_ex.c ****   CLEAR_BIT(PWR->CR2, PWR_PVM_1);
 1253              		.loc 1 597 3 view .LVU297
 1254 0000 024A     		ldr	r2, .L107
 1255 0002 5368     		ldr	r3, [r2, #4]
 1256 0004 23F01003 		bic	r3, r3, #16
 1257 0008 5360     		str	r3, [r2, #4]
 598:Drivers/STM32G4xx_HAL_Driver/Src/stm32g4xx_hal_pwr_ex.c **** }
 1258              		.loc 1 598 1 is_stmt 0 view .LVU298
 1259 000a 7047     		bx	lr
 1260              	.L108:
 1261              		.align	2
 1262              	.L107:
 1263 000c 00700040 		.word	1073770496
 1264              		.cfi_endproc
 1265              	.LFE340:
 1267              		.section	.text.HAL_PWREx_EnablePVM2,"ax",%progbits
 1268              		.align	1
 1269              		.global	HAL_PWREx_EnablePVM2
 1270              		.syntax unified
 1271              		.thumb
 1272              		.thumb_func
 1273              		.fpu fpv4-sp-d16
 1275              	HAL_PWREx_EnablePVM2:
 1276              	.LFB341:
 599:Drivers/STM32G4xx_HAL_Driver/Src/stm32g4xx_hal_pwr_ex.c **** #endif /* PWR_CR2_PVME1 */
 600:Drivers/STM32G4xx_HAL_Driver/Src/stm32g4xx_hal_pwr_ex.c **** 
 601:Drivers/STM32G4xx_HAL_Driver/Src/stm32g4xx_hal_pwr_ex.c **** 
 602:Drivers/STM32G4xx_HAL_Driver/Src/stm32g4xx_hal_pwr_ex.c **** #if defined(PWR_CR2_PVME2)
 603:Drivers/STM32G4xx_HAL_Driver/Src/stm32g4xx_hal_pwr_ex.c **** /**
 604:Drivers/STM32G4xx_HAL_Driver/Src/stm32g4xx_hal_pwr_ex.c ****   * @brief Enable the Power Voltage Monitoring 2: VDDA versus FASTDAC minimum voltage.
 605:Drivers/STM32G4xx_HAL_Driver/Src/stm32g4xx_hal_pwr_ex.c ****   * @retval None
 606:Drivers/STM32G4xx_HAL_Driver/Src/stm32g4xx_hal_pwr_ex.c ****   */
 607:Drivers/STM32G4xx_HAL_Driver/Src/stm32g4xx_hal_pwr_ex.c **** void HAL_PWREx_EnablePVM2(void)
 608:Drivers/STM32G4xx_HAL_Driver/Src/stm32g4xx_hal_pwr_ex.c **** {
 1277              		.loc 1 608 1 is_stmt 1 view -0
 1278              		.cfi_startproc
 1279              		@ args = 0, pretend = 0, frame = 0
 1280              		@ frame_needed = 0, uses_anonymous_args = 0
 1281              		@ link register save eliminated.
 609:Drivers/STM32G4xx_HAL_Driver/Src/stm32g4xx_hal_pwr_ex.c ****   SET_BIT(PWR->CR2, PWR_PVM_2);
 1282              		.loc 1 609 3 view .LVU300
 1283 0000 024A     		ldr	r2, .L110
 1284 0002 5368     		ldr	r3, [r2, #4]
 1285 0004 43F02003 		orr	r3, r3, #32
 1286 0008 5360     		str	r3, [r2, #4]
 610:Drivers/STM32G4xx_HAL_Driver/Src/stm32g4xx_hal_pwr_ex.c **** }
 1287              		.loc 1 610 1 is_stmt 0 view .LVU301
ARM GAS  /tmp/cc9EFiwU.s 			page 35


 1288 000a 7047     		bx	lr
 1289              	.L111:
 1290              		.align	2
 1291              	.L110:
 1292 000c 00700040 		.word	1073770496
 1293              		.cfi_endproc
 1294              	.LFE341:
 1296              		.section	.text.HAL_PWREx_DisablePVM2,"ax",%progbits
 1297              		.align	1
 1298              		.global	HAL_PWREx_DisablePVM2
 1299              		.syntax unified
 1300              		.thumb
 1301              		.thumb_func
 1302              		.fpu fpv4-sp-d16
 1304              	HAL_PWREx_DisablePVM2:
 1305              	.LFB342:
 611:Drivers/STM32G4xx_HAL_Driver/Src/stm32g4xx_hal_pwr_ex.c **** 
 612:Drivers/STM32G4xx_HAL_Driver/Src/stm32g4xx_hal_pwr_ex.c **** /**
 613:Drivers/STM32G4xx_HAL_Driver/Src/stm32g4xx_hal_pwr_ex.c ****   * @brief Disable the Power Voltage Monitoring 2: VDDA versus FASTDAC minimum voltage.
 614:Drivers/STM32G4xx_HAL_Driver/Src/stm32g4xx_hal_pwr_ex.c ****   * @retval None
 615:Drivers/STM32G4xx_HAL_Driver/Src/stm32g4xx_hal_pwr_ex.c ****   */
 616:Drivers/STM32G4xx_HAL_Driver/Src/stm32g4xx_hal_pwr_ex.c **** void HAL_PWREx_DisablePVM2(void)
 617:Drivers/STM32G4xx_HAL_Driver/Src/stm32g4xx_hal_pwr_ex.c **** {
 1306              		.loc 1 617 1 is_stmt 1 view -0
 1307              		.cfi_startproc
 1308              		@ args = 0, pretend = 0, frame = 0
 1309              		@ frame_needed = 0, uses_anonymous_args = 0
 1310              		@ link register save eliminated.
 618:Drivers/STM32G4xx_HAL_Driver/Src/stm32g4xx_hal_pwr_ex.c ****   CLEAR_BIT(PWR->CR2, PWR_PVM_2);
 1311              		.loc 1 618 3 view .LVU303
 1312 0000 024A     		ldr	r2, .L113
 1313 0002 5368     		ldr	r3, [r2, #4]
 1314 0004 23F02003 		bic	r3, r3, #32
 1315 0008 5360     		str	r3, [r2, #4]
 619:Drivers/STM32G4xx_HAL_Driver/Src/stm32g4xx_hal_pwr_ex.c **** }
 1316              		.loc 1 619 1 is_stmt 0 view .LVU304
 1317 000a 7047     		bx	lr
 1318              	.L114:
 1319              		.align	2
 1320              	.L113:
 1321 000c 00700040 		.word	1073770496
 1322              		.cfi_endproc
 1323              	.LFE342:
 1325              		.section	.text.HAL_PWREx_EnablePVM3,"ax",%progbits
 1326              		.align	1
 1327              		.global	HAL_PWREx_EnablePVM3
 1328              		.syntax unified
 1329              		.thumb
 1330              		.thumb_func
 1331              		.fpu fpv4-sp-d16
 1333              	HAL_PWREx_EnablePVM3:
 1334              	.LFB343:
 620:Drivers/STM32G4xx_HAL_Driver/Src/stm32g4xx_hal_pwr_ex.c **** #endif /* PWR_CR2_PVME2 */
 621:Drivers/STM32G4xx_HAL_Driver/Src/stm32g4xx_hal_pwr_ex.c **** 
 622:Drivers/STM32G4xx_HAL_Driver/Src/stm32g4xx_hal_pwr_ex.c **** 
 623:Drivers/STM32G4xx_HAL_Driver/Src/stm32g4xx_hal_pwr_ex.c **** /**
 624:Drivers/STM32G4xx_HAL_Driver/Src/stm32g4xx_hal_pwr_ex.c ****   * @brief Enable the Power Voltage Monitoring 3: VDDA versus ADC minimum voltage 1.62V.
ARM GAS  /tmp/cc9EFiwU.s 			page 36


 625:Drivers/STM32G4xx_HAL_Driver/Src/stm32g4xx_hal_pwr_ex.c ****   * @retval None
 626:Drivers/STM32G4xx_HAL_Driver/Src/stm32g4xx_hal_pwr_ex.c ****   */
 627:Drivers/STM32G4xx_HAL_Driver/Src/stm32g4xx_hal_pwr_ex.c **** void HAL_PWREx_EnablePVM3(void)
 628:Drivers/STM32G4xx_HAL_Driver/Src/stm32g4xx_hal_pwr_ex.c **** {
 1335              		.loc 1 628 1 is_stmt 1 view -0
 1336              		.cfi_startproc
 1337              		@ args = 0, pretend = 0, frame = 0
 1338              		@ frame_needed = 0, uses_anonymous_args = 0
 1339              		@ link register save eliminated.
 629:Drivers/STM32G4xx_HAL_Driver/Src/stm32g4xx_hal_pwr_ex.c ****   SET_BIT(PWR->CR2, PWR_PVM_3);
 1340              		.loc 1 629 3 view .LVU306
 1341 0000 024A     		ldr	r2, .L116
 1342 0002 5368     		ldr	r3, [r2, #4]
 1343 0004 43F04003 		orr	r3, r3, #64
 1344 0008 5360     		str	r3, [r2, #4]
 630:Drivers/STM32G4xx_HAL_Driver/Src/stm32g4xx_hal_pwr_ex.c **** }
 1345              		.loc 1 630 1 is_stmt 0 view .LVU307
 1346 000a 7047     		bx	lr
 1347              	.L117:
 1348              		.align	2
 1349              	.L116:
 1350 000c 00700040 		.word	1073770496
 1351              		.cfi_endproc
 1352              	.LFE343:
 1354              		.section	.text.HAL_PWREx_DisablePVM3,"ax",%progbits
 1355              		.align	1
 1356              		.global	HAL_PWREx_DisablePVM3
 1357              		.syntax unified
 1358              		.thumb
 1359              		.thumb_func
 1360              		.fpu fpv4-sp-d16
 1362              	HAL_PWREx_DisablePVM3:
 1363              	.LFB344:
 631:Drivers/STM32G4xx_HAL_Driver/Src/stm32g4xx_hal_pwr_ex.c **** 
 632:Drivers/STM32G4xx_HAL_Driver/Src/stm32g4xx_hal_pwr_ex.c **** /**
 633:Drivers/STM32G4xx_HAL_Driver/Src/stm32g4xx_hal_pwr_ex.c ****   * @brief Disable the Power Voltage Monitoring 3: VDDA versus ADC minimum voltage 1.62V.
 634:Drivers/STM32G4xx_HAL_Driver/Src/stm32g4xx_hal_pwr_ex.c ****   * @retval None
 635:Drivers/STM32G4xx_HAL_Driver/Src/stm32g4xx_hal_pwr_ex.c ****   */
 636:Drivers/STM32G4xx_HAL_Driver/Src/stm32g4xx_hal_pwr_ex.c **** void HAL_PWREx_DisablePVM3(void)
 637:Drivers/STM32G4xx_HAL_Driver/Src/stm32g4xx_hal_pwr_ex.c **** {
 1364              		.loc 1 637 1 is_stmt 1 view -0
 1365              		.cfi_startproc
 1366              		@ args = 0, pretend = 0, frame = 0
 1367              		@ frame_needed = 0, uses_anonymous_args = 0
 1368              		@ link register save eliminated.
 638:Drivers/STM32G4xx_HAL_Driver/Src/stm32g4xx_hal_pwr_ex.c ****   CLEAR_BIT(PWR->CR2, PWR_PVM_3);
 1369              		.loc 1 638 3 view .LVU309
 1370 0000 024A     		ldr	r2, .L119
 1371 0002 5368     		ldr	r3, [r2, #4]
 1372 0004 23F04003 		bic	r3, r3, #64
 1373 0008 5360     		str	r3, [r2, #4]
 639:Drivers/STM32G4xx_HAL_Driver/Src/stm32g4xx_hal_pwr_ex.c **** }
 1374              		.loc 1 639 1 is_stmt 0 view .LVU310
 1375 000a 7047     		bx	lr
 1376              	.L120:
 1377              		.align	2
 1378              	.L119:
ARM GAS  /tmp/cc9EFiwU.s 			page 37


 1379 000c 00700040 		.word	1073770496
 1380              		.cfi_endproc
 1381              	.LFE344:
 1383              		.section	.text.HAL_PWREx_EnablePVM4,"ax",%progbits
 1384              		.align	1
 1385              		.global	HAL_PWREx_EnablePVM4
 1386              		.syntax unified
 1387              		.thumb
 1388              		.thumb_func
 1389              		.fpu fpv4-sp-d16
 1391              	HAL_PWREx_EnablePVM4:
 1392              	.LFB345:
 640:Drivers/STM32G4xx_HAL_Driver/Src/stm32g4xx_hal_pwr_ex.c **** 
 641:Drivers/STM32G4xx_HAL_Driver/Src/stm32g4xx_hal_pwr_ex.c **** 
 642:Drivers/STM32G4xx_HAL_Driver/Src/stm32g4xx_hal_pwr_ex.c **** /**
 643:Drivers/STM32G4xx_HAL_Driver/Src/stm32g4xx_hal_pwr_ex.c ****   * @brief Enable the Power Voltage Monitoring 4: VDDA versus OPAMP/DAC minimum voltage 1.8V.
 644:Drivers/STM32G4xx_HAL_Driver/Src/stm32g4xx_hal_pwr_ex.c ****   * @retval None
 645:Drivers/STM32G4xx_HAL_Driver/Src/stm32g4xx_hal_pwr_ex.c ****   */
 646:Drivers/STM32G4xx_HAL_Driver/Src/stm32g4xx_hal_pwr_ex.c **** void HAL_PWREx_EnablePVM4(void)
 647:Drivers/STM32G4xx_HAL_Driver/Src/stm32g4xx_hal_pwr_ex.c **** {
 1393              		.loc 1 647 1 is_stmt 1 view -0
 1394              		.cfi_startproc
 1395              		@ args = 0, pretend = 0, frame = 0
 1396              		@ frame_needed = 0, uses_anonymous_args = 0
 1397              		@ link register save eliminated.
 648:Drivers/STM32G4xx_HAL_Driver/Src/stm32g4xx_hal_pwr_ex.c ****   SET_BIT(PWR->CR2, PWR_PVM_4);
 1398              		.loc 1 648 3 view .LVU312
 1399 0000 024A     		ldr	r2, .L122
 1400 0002 5368     		ldr	r3, [r2, #4]
 1401 0004 43F08003 		orr	r3, r3, #128
 1402 0008 5360     		str	r3, [r2, #4]
 649:Drivers/STM32G4xx_HAL_Driver/Src/stm32g4xx_hal_pwr_ex.c **** }
 1403              		.loc 1 649 1 is_stmt 0 view .LVU313
 1404 000a 7047     		bx	lr
 1405              	.L123:
 1406              		.align	2
 1407              	.L122:
 1408 000c 00700040 		.word	1073770496
 1409              		.cfi_endproc
 1410              	.LFE345:
 1412              		.section	.text.HAL_PWREx_DisablePVM4,"ax",%progbits
 1413              		.align	1
 1414              		.global	HAL_PWREx_DisablePVM4
 1415              		.syntax unified
 1416              		.thumb
 1417              		.thumb_func
 1418              		.fpu fpv4-sp-d16
 1420              	HAL_PWREx_DisablePVM4:
 1421              	.LFB346:
 650:Drivers/STM32G4xx_HAL_Driver/Src/stm32g4xx_hal_pwr_ex.c **** 
 651:Drivers/STM32G4xx_HAL_Driver/Src/stm32g4xx_hal_pwr_ex.c **** /**
 652:Drivers/STM32G4xx_HAL_Driver/Src/stm32g4xx_hal_pwr_ex.c ****   * @brief Disable the Power Voltage Monitoring 4: VDDA versus OPAMP/DAC minimum voltage 1.8V.
 653:Drivers/STM32G4xx_HAL_Driver/Src/stm32g4xx_hal_pwr_ex.c ****   * @retval None
 654:Drivers/STM32G4xx_HAL_Driver/Src/stm32g4xx_hal_pwr_ex.c ****   */
 655:Drivers/STM32G4xx_HAL_Driver/Src/stm32g4xx_hal_pwr_ex.c **** void HAL_PWREx_DisablePVM4(void)
 656:Drivers/STM32G4xx_HAL_Driver/Src/stm32g4xx_hal_pwr_ex.c **** {
 1422              		.loc 1 656 1 is_stmt 1 view -0
ARM GAS  /tmp/cc9EFiwU.s 			page 38


 1423              		.cfi_startproc
 1424              		@ args = 0, pretend = 0, frame = 0
 1425              		@ frame_needed = 0, uses_anonymous_args = 0
 1426              		@ link register save eliminated.
 657:Drivers/STM32G4xx_HAL_Driver/Src/stm32g4xx_hal_pwr_ex.c ****   CLEAR_BIT(PWR->CR2, PWR_PVM_4);
 1427              		.loc 1 657 3 view .LVU315
 1428 0000 024A     		ldr	r2, .L125
 1429 0002 5368     		ldr	r3, [r2, #4]
 1430 0004 23F08003 		bic	r3, r3, #128
 1431 0008 5360     		str	r3, [r2, #4]
 658:Drivers/STM32G4xx_HAL_Driver/Src/stm32g4xx_hal_pwr_ex.c **** }
 1432              		.loc 1 658 1 is_stmt 0 view .LVU316
 1433 000a 7047     		bx	lr
 1434              	.L126:
 1435              		.align	2
 1436              	.L125:
 1437 000c 00700040 		.word	1073770496
 1438              		.cfi_endproc
 1439              	.LFE346:
 1441              		.section	.text.HAL_PWREx_ConfigPVM,"ax",%progbits
 1442              		.align	1
 1443              		.global	HAL_PWREx_ConfigPVM
 1444              		.syntax unified
 1445              		.thumb
 1446              		.thumb_func
 1447              		.fpu fpv4-sp-d16
 1449              	HAL_PWREx_ConfigPVM:
 1450              	.LVL114:
 1451              	.LFB347:
 659:Drivers/STM32G4xx_HAL_Driver/Src/stm32g4xx_hal_pwr_ex.c **** 
 660:Drivers/STM32G4xx_HAL_Driver/Src/stm32g4xx_hal_pwr_ex.c **** 
 661:Drivers/STM32G4xx_HAL_Driver/Src/stm32g4xx_hal_pwr_ex.c **** 
 662:Drivers/STM32G4xx_HAL_Driver/Src/stm32g4xx_hal_pwr_ex.c **** 
 663:Drivers/STM32G4xx_HAL_Driver/Src/stm32g4xx_hal_pwr_ex.c **** /**
 664:Drivers/STM32G4xx_HAL_Driver/Src/stm32g4xx_hal_pwr_ex.c ****   * @brief Configure the Peripheral Voltage Monitoring (PVM).
 665:Drivers/STM32G4xx_HAL_Driver/Src/stm32g4xx_hal_pwr_ex.c ****   * @param sConfigPVM: pointer to a PWR_PVMTypeDef structure that contains the
 666:Drivers/STM32G4xx_HAL_Driver/Src/stm32g4xx_hal_pwr_ex.c ****   *        PVM configuration information.
 667:Drivers/STM32G4xx_HAL_Driver/Src/stm32g4xx_hal_pwr_ex.c ****   * @note The API configures a single PVM according to the information contained
 668:Drivers/STM32G4xx_HAL_Driver/Src/stm32g4xx_hal_pwr_ex.c ****   *       in the input structure. To configure several PVMs, the API must be singly
 669:Drivers/STM32G4xx_HAL_Driver/Src/stm32g4xx_hal_pwr_ex.c ****   *       called for each PVM used.
 670:Drivers/STM32G4xx_HAL_Driver/Src/stm32g4xx_hal_pwr_ex.c ****   * @note Refer to the electrical characteristics of your device datasheet for
 671:Drivers/STM32G4xx_HAL_Driver/Src/stm32g4xx_hal_pwr_ex.c ****   *         more details about the voltage thresholds corresponding to each
 672:Drivers/STM32G4xx_HAL_Driver/Src/stm32g4xx_hal_pwr_ex.c ****   *         detection level and to each monitored supply.
 673:Drivers/STM32G4xx_HAL_Driver/Src/stm32g4xx_hal_pwr_ex.c ****   * @retval HAL status
 674:Drivers/STM32G4xx_HAL_Driver/Src/stm32g4xx_hal_pwr_ex.c ****   */
 675:Drivers/STM32G4xx_HAL_Driver/Src/stm32g4xx_hal_pwr_ex.c **** HAL_StatusTypeDef HAL_PWREx_ConfigPVM(PWR_PVMTypeDef *sConfigPVM)
 676:Drivers/STM32G4xx_HAL_Driver/Src/stm32g4xx_hal_pwr_ex.c **** {
 1452              		.loc 1 676 1 is_stmt 1 view -0
 1453              		.cfi_startproc
 1454              		@ args = 0, pretend = 0, frame = 0
 1455              		@ frame_needed = 0, uses_anonymous_args = 0
 1456              		@ link register save eliminated.
 677:Drivers/STM32G4xx_HAL_Driver/Src/stm32g4xx_hal_pwr_ex.c ****   HAL_StatusTypeDef status = HAL_OK;
 1457              		.loc 1 677 3 view .LVU318
 678:Drivers/STM32G4xx_HAL_Driver/Src/stm32g4xx_hal_pwr_ex.c **** 
 679:Drivers/STM32G4xx_HAL_Driver/Src/stm32g4xx_hal_pwr_ex.c ****   /* Check the parameters */
 680:Drivers/STM32G4xx_HAL_Driver/Src/stm32g4xx_hal_pwr_ex.c ****   assert_param(IS_PWR_PVM_TYPE(sConfigPVM->PVMType));
ARM GAS  /tmp/cc9EFiwU.s 			page 39


 1458              		.loc 1 680 3 view .LVU319
 681:Drivers/STM32G4xx_HAL_Driver/Src/stm32g4xx_hal_pwr_ex.c ****   assert_param(IS_PWR_PVM_MODE(sConfigPVM->Mode));
 1459              		.loc 1 681 3 view .LVU320
 682:Drivers/STM32G4xx_HAL_Driver/Src/stm32g4xx_hal_pwr_ex.c **** 
 683:Drivers/STM32G4xx_HAL_Driver/Src/stm32g4xx_hal_pwr_ex.c **** 
 684:Drivers/STM32G4xx_HAL_Driver/Src/stm32g4xx_hal_pwr_ex.c ****   /* Configure EXTI 35 to 38 interrupts if so required:
 685:Drivers/STM32G4xx_HAL_Driver/Src/stm32g4xx_hal_pwr_ex.c ****      scan thru PVMType to detect which PVMx is set and
 686:Drivers/STM32G4xx_HAL_Driver/Src/stm32g4xx_hal_pwr_ex.c ****      configure the corresponding EXTI line accordingly. */
 687:Drivers/STM32G4xx_HAL_Driver/Src/stm32g4xx_hal_pwr_ex.c ****   switch (sConfigPVM->PVMType)
 1460              		.loc 1 687 3 view .LVU321
 1461              		.loc 1 687 21 is_stmt 0 view .LVU322
 1462 0000 0368     		ldr	r3, [r0]
 1463              		.loc 1 687 3 view .LVU323
 1464 0002 202B     		cmp	r3, #32
 1465 0004 7AD0     		beq	.L128
 1466 0006 3CD9     		bls	.L150
 1467 0008 402B     		cmp	r3, #64
 1468 000a 00F0AE80 		beq	.L132
 1469 000e 802B     		cmp	r3, #128
 1470 0010 72D1     		bne	.L151
 688:Drivers/STM32G4xx_HAL_Driver/Src/stm32g4xx_hal_pwr_ex.c ****   {
 689:Drivers/STM32G4xx_HAL_Driver/Src/stm32g4xx_hal_pwr_ex.c **** #if defined(PWR_CR2_PVME1)
 690:Drivers/STM32G4xx_HAL_Driver/Src/stm32g4xx_hal_pwr_ex.c ****     case PWR_PVM_1:
 691:Drivers/STM32G4xx_HAL_Driver/Src/stm32g4xx_hal_pwr_ex.c ****       /* Clear any previous config. Keep it clear if no event or IT mode is selected */
 692:Drivers/STM32G4xx_HAL_Driver/Src/stm32g4xx_hal_pwr_ex.c ****       __HAL_PWR_PVM1_EXTI_DISABLE_EVENT();
 693:Drivers/STM32G4xx_HAL_Driver/Src/stm32g4xx_hal_pwr_ex.c ****       __HAL_PWR_PVM1_EXTI_DISABLE_IT();
 694:Drivers/STM32G4xx_HAL_Driver/Src/stm32g4xx_hal_pwr_ex.c ****       __HAL_PWR_PVM1_EXTI_DISABLE_FALLING_EDGE();
 695:Drivers/STM32G4xx_HAL_Driver/Src/stm32g4xx_hal_pwr_ex.c ****       __HAL_PWR_PVM1_EXTI_DISABLE_RISING_EDGE();
 696:Drivers/STM32G4xx_HAL_Driver/Src/stm32g4xx_hal_pwr_ex.c **** 
 697:Drivers/STM32G4xx_HAL_Driver/Src/stm32g4xx_hal_pwr_ex.c ****       /* Configure interrupt mode */
 698:Drivers/STM32G4xx_HAL_Driver/Src/stm32g4xx_hal_pwr_ex.c ****       if((sConfigPVM->Mode & PVM_MODE_IT) == PVM_MODE_IT)
 699:Drivers/STM32G4xx_HAL_Driver/Src/stm32g4xx_hal_pwr_ex.c ****       {
 700:Drivers/STM32G4xx_HAL_Driver/Src/stm32g4xx_hal_pwr_ex.c ****         __HAL_PWR_PVM1_EXTI_ENABLE_IT();
 701:Drivers/STM32G4xx_HAL_Driver/Src/stm32g4xx_hal_pwr_ex.c ****       }
 702:Drivers/STM32G4xx_HAL_Driver/Src/stm32g4xx_hal_pwr_ex.c **** 
 703:Drivers/STM32G4xx_HAL_Driver/Src/stm32g4xx_hal_pwr_ex.c ****       /* Configure event mode */
 704:Drivers/STM32G4xx_HAL_Driver/Src/stm32g4xx_hal_pwr_ex.c ****       if((sConfigPVM->Mode & PVM_MODE_EVT) == PVM_MODE_EVT)
 705:Drivers/STM32G4xx_HAL_Driver/Src/stm32g4xx_hal_pwr_ex.c ****       {
 706:Drivers/STM32G4xx_HAL_Driver/Src/stm32g4xx_hal_pwr_ex.c ****         __HAL_PWR_PVM1_EXTI_ENABLE_EVENT();
 707:Drivers/STM32G4xx_HAL_Driver/Src/stm32g4xx_hal_pwr_ex.c ****       }
 708:Drivers/STM32G4xx_HAL_Driver/Src/stm32g4xx_hal_pwr_ex.c **** 
 709:Drivers/STM32G4xx_HAL_Driver/Src/stm32g4xx_hal_pwr_ex.c ****       /* Configure the edge */
 710:Drivers/STM32G4xx_HAL_Driver/Src/stm32g4xx_hal_pwr_ex.c ****       if((sConfigPVM->Mode & PVM_RISING_EDGE) == PVM_RISING_EDGE)
 711:Drivers/STM32G4xx_HAL_Driver/Src/stm32g4xx_hal_pwr_ex.c ****       {
 712:Drivers/STM32G4xx_HAL_Driver/Src/stm32g4xx_hal_pwr_ex.c ****         __HAL_PWR_PVM1_EXTI_ENABLE_RISING_EDGE();
 713:Drivers/STM32G4xx_HAL_Driver/Src/stm32g4xx_hal_pwr_ex.c ****       }
 714:Drivers/STM32G4xx_HAL_Driver/Src/stm32g4xx_hal_pwr_ex.c **** 
 715:Drivers/STM32G4xx_HAL_Driver/Src/stm32g4xx_hal_pwr_ex.c ****       if((sConfigPVM->Mode & PVM_FALLING_EDGE) == PVM_FALLING_EDGE)
 716:Drivers/STM32G4xx_HAL_Driver/Src/stm32g4xx_hal_pwr_ex.c ****       {
 717:Drivers/STM32G4xx_HAL_Driver/Src/stm32g4xx_hal_pwr_ex.c ****         __HAL_PWR_PVM1_EXTI_ENABLE_FALLING_EDGE();
 718:Drivers/STM32G4xx_HAL_Driver/Src/stm32g4xx_hal_pwr_ex.c ****       }
 719:Drivers/STM32G4xx_HAL_Driver/Src/stm32g4xx_hal_pwr_ex.c ****       break;
 720:Drivers/STM32G4xx_HAL_Driver/Src/stm32g4xx_hal_pwr_ex.c **** #endif /* PWR_CR2_PVME1 */
 721:Drivers/STM32G4xx_HAL_Driver/Src/stm32g4xx_hal_pwr_ex.c **** 
 722:Drivers/STM32G4xx_HAL_Driver/Src/stm32g4xx_hal_pwr_ex.c **** #if defined(PWR_CR2_PVME2)
 723:Drivers/STM32G4xx_HAL_Driver/Src/stm32g4xx_hal_pwr_ex.c ****     case PWR_PVM_2:
 724:Drivers/STM32G4xx_HAL_Driver/Src/stm32g4xx_hal_pwr_ex.c ****       /* Clear any previous config. Keep it clear if no event or IT mode is selected */
ARM GAS  /tmp/cc9EFiwU.s 			page 40


 725:Drivers/STM32G4xx_HAL_Driver/Src/stm32g4xx_hal_pwr_ex.c ****       __HAL_PWR_PVM2_EXTI_DISABLE_EVENT();
 726:Drivers/STM32G4xx_HAL_Driver/Src/stm32g4xx_hal_pwr_ex.c ****       __HAL_PWR_PVM2_EXTI_DISABLE_IT();
 727:Drivers/STM32G4xx_HAL_Driver/Src/stm32g4xx_hal_pwr_ex.c ****       __HAL_PWR_PVM2_EXTI_DISABLE_FALLING_EDGE();
 728:Drivers/STM32G4xx_HAL_Driver/Src/stm32g4xx_hal_pwr_ex.c ****       __HAL_PWR_PVM2_EXTI_DISABLE_RISING_EDGE();
 729:Drivers/STM32G4xx_HAL_Driver/Src/stm32g4xx_hal_pwr_ex.c **** 
 730:Drivers/STM32G4xx_HAL_Driver/Src/stm32g4xx_hal_pwr_ex.c ****       /* Configure interrupt mode */
 731:Drivers/STM32G4xx_HAL_Driver/Src/stm32g4xx_hal_pwr_ex.c ****       if((sConfigPVM->Mode & PVM_MODE_IT) == PVM_MODE_IT)
 732:Drivers/STM32G4xx_HAL_Driver/Src/stm32g4xx_hal_pwr_ex.c ****       {
 733:Drivers/STM32G4xx_HAL_Driver/Src/stm32g4xx_hal_pwr_ex.c ****         __HAL_PWR_PVM2_EXTI_ENABLE_IT();
 734:Drivers/STM32G4xx_HAL_Driver/Src/stm32g4xx_hal_pwr_ex.c ****       }
 735:Drivers/STM32G4xx_HAL_Driver/Src/stm32g4xx_hal_pwr_ex.c **** 
 736:Drivers/STM32G4xx_HAL_Driver/Src/stm32g4xx_hal_pwr_ex.c ****       /* Configure event mode */
 737:Drivers/STM32G4xx_HAL_Driver/Src/stm32g4xx_hal_pwr_ex.c ****       if((sConfigPVM->Mode & PVM_MODE_EVT) == PVM_MODE_EVT)
 738:Drivers/STM32G4xx_HAL_Driver/Src/stm32g4xx_hal_pwr_ex.c ****       {
 739:Drivers/STM32G4xx_HAL_Driver/Src/stm32g4xx_hal_pwr_ex.c ****         __HAL_PWR_PVM2_EXTI_ENABLE_EVENT();
 740:Drivers/STM32G4xx_HAL_Driver/Src/stm32g4xx_hal_pwr_ex.c ****       }
 741:Drivers/STM32G4xx_HAL_Driver/Src/stm32g4xx_hal_pwr_ex.c **** 
 742:Drivers/STM32G4xx_HAL_Driver/Src/stm32g4xx_hal_pwr_ex.c ****       /* Configure the edge */
 743:Drivers/STM32G4xx_HAL_Driver/Src/stm32g4xx_hal_pwr_ex.c ****       if((sConfigPVM->Mode & PVM_RISING_EDGE) == PVM_RISING_EDGE)
 744:Drivers/STM32G4xx_HAL_Driver/Src/stm32g4xx_hal_pwr_ex.c ****       {
 745:Drivers/STM32G4xx_HAL_Driver/Src/stm32g4xx_hal_pwr_ex.c ****         __HAL_PWR_PVM2_EXTI_ENABLE_RISING_EDGE();
 746:Drivers/STM32G4xx_HAL_Driver/Src/stm32g4xx_hal_pwr_ex.c ****       }
 747:Drivers/STM32G4xx_HAL_Driver/Src/stm32g4xx_hal_pwr_ex.c **** 
 748:Drivers/STM32G4xx_HAL_Driver/Src/stm32g4xx_hal_pwr_ex.c ****       if((sConfigPVM->Mode & PVM_FALLING_EDGE) == PVM_FALLING_EDGE)
 749:Drivers/STM32G4xx_HAL_Driver/Src/stm32g4xx_hal_pwr_ex.c ****       {
 750:Drivers/STM32G4xx_HAL_Driver/Src/stm32g4xx_hal_pwr_ex.c ****         __HAL_PWR_PVM2_EXTI_ENABLE_FALLING_EDGE();
 751:Drivers/STM32G4xx_HAL_Driver/Src/stm32g4xx_hal_pwr_ex.c ****       }
 752:Drivers/STM32G4xx_HAL_Driver/Src/stm32g4xx_hal_pwr_ex.c ****       break;
 753:Drivers/STM32G4xx_HAL_Driver/Src/stm32g4xx_hal_pwr_ex.c **** #endif /* PWR_CR2_PVME2 */
 754:Drivers/STM32G4xx_HAL_Driver/Src/stm32g4xx_hal_pwr_ex.c **** 
 755:Drivers/STM32G4xx_HAL_Driver/Src/stm32g4xx_hal_pwr_ex.c ****     case PWR_PVM_3:
 756:Drivers/STM32G4xx_HAL_Driver/Src/stm32g4xx_hal_pwr_ex.c ****       /* Clear any previous config. Keep it clear if no event or IT mode is selected */
 757:Drivers/STM32G4xx_HAL_Driver/Src/stm32g4xx_hal_pwr_ex.c ****       __HAL_PWR_PVM3_EXTI_DISABLE_EVENT();
 758:Drivers/STM32G4xx_HAL_Driver/Src/stm32g4xx_hal_pwr_ex.c ****       __HAL_PWR_PVM3_EXTI_DISABLE_IT();
 759:Drivers/STM32G4xx_HAL_Driver/Src/stm32g4xx_hal_pwr_ex.c ****       __HAL_PWR_PVM3_EXTI_DISABLE_FALLING_EDGE();
 760:Drivers/STM32G4xx_HAL_Driver/Src/stm32g4xx_hal_pwr_ex.c ****       __HAL_PWR_PVM3_EXTI_DISABLE_RISING_EDGE();
 761:Drivers/STM32G4xx_HAL_Driver/Src/stm32g4xx_hal_pwr_ex.c **** 
 762:Drivers/STM32G4xx_HAL_Driver/Src/stm32g4xx_hal_pwr_ex.c ****       /* Configure interrupt mode */
 763:Drivers/STM32G4xx_HAL_Driver/Src/stm32g4xx_hal_pwr_ex.c ****       if((sConfigPVM->Mode & PVM_MODE_IT) == PVM_MODE_IT)
 764:Drivers/STM32G4xx_HAL_Driver/Src/stm32g4xx_hal_pwr_ex.c ****       {
 765:Drivers/STM32G4xx_HAL_Driver/Src/stm32g4xx_hal_pwr_ex.c ****         __HAL_PWR_PVM3_EXTI_ENABLE_IT();
 766:Drivers/STM32G4xx_HAL_Driver/Src/stm32g4xx_hal_pwr_ex.c ****       }
 767:Drivers/STM32G4xx_HAL_Driver/Src/stm32g4xx_hal_pwr_ex.c **** 
 768:Drivers/STM32G4xx_HAL_Driver/Src/stm32g4xx_hal_pwr_ex.c ****       /* Configure event mode */
 769:Drivers/STM32G4xx_HAL_Driver/Src/stm32g4xx_hal_pwr_ex.c ****       if((sConfigPVM->Mode & PVM_MODE_EVT) == PVM_MODE_EVT)
 770:Drivers/STM32G4xx_HAL_Driver/Src/stm32g4xx_hal_pwr_ex.c ****       {
 771:Drivers/STM32G4xx_HAL_Driver/Src/stm32g4xx_hal_pwr_ex.c ****         __HAL_PWR_PVM3_EXTI_ENABLE_EVENT();
 772:Drivers/STM32G4xx_HAL_Driver/Src/stm32g4xx_hal_pwr_ex.c ****       }
 773:Drivers/STM32G4xx_HAL_Driver/Src/stm32g4xx_hal_pwr_ex.c **** 
 774:Drivers/STM32G4xx_HAL_Driver/Src/stm32g4xx_hal_pwr_ex.c ****       /* Configure the edge */
 775:Drivers/STM32G4xx_HAL_Driver/Src/stm32g4xx_hal_pwr_ex.c ****       if((sConfigPVM->Mode & PVM_RISING_EDGE) == PVM_RISING_EDGE)
 776:Drivers/STM32G4xx_HAL_Driver/Src/stm32g4xx_hal_pwr_ex.c ****       {
 777:Drivers/STM32G4xx_HAL_Driver/Src/stm32g4xx_hal_pwr_ex.c ****         __HAL_PWR_PVM3_EXTI_ENABLE_RISING_EDGE();
 778:Drivers/STM32G4xx_HAL_Driver/Src/stm32g4xx_hal_pwr_ex.c ****       }
 779:Drivers/STM32G4xx_HAL_Driver/Src/stm32g4xx_hal_pwr_ex.c **** 
 780:Drivers/STM32G4xx_HAL_Driver/Src/stm32g4xx_hal_pwr_ex.c ****       if((sConfigPVM->Mode & PVM_FALLING_EDGE) == PVM_FALLING_EDGE)
 781:Drivers/STM32G4xx_HAL_Driver/Src/stm32g4xx_hal_pwr_ex.c ****       {
ARM GAS  /tmp/cc9EFiwU.s 			page 41


 782:Drivers/STM32G4xx_HAL_Driver/Src/stm32g4xx_hal_pwr_ex.c ****         __HAL_PWR_PVM3_EXTI_ENABLE_FALLING_EDGE();
 783:Drivers/STM32G4xx_HAL_Driver/Src/stm32g4xx_hal_pwr_ex.c ****       }
 784:Drivers/STM32G4xx_HAL_Driver/Src/stm32g4xx_hal_pwr_ex.c ****       break;
 785:Drivers/STM32G4xx_HAL_Driver/Src/stm32g4xx_hal_pwr_ex.c **** 
 786:Drivers/STM32G4xx_HAL_Driver/Src/stm32g4xx_hal_pwr_ex.c ****     case PWR_PVM_4:
 787:Drivers/STM32G4xx_HAL_Driver/Src/stm32g4xx_hal_pwr_ex.c ****       /* Clear any previous config. Keep it clear if no event or IT mode is selected */
 788:Drivers/STM32G4xx_HAL_Driver/Src/stm32g4xx_hal_pwr_ex.c ****       __HAL_PWR_PVM4_EXTI_DISABLE_EVENT();
 1471              		.loc 1 788 7 is_stmt 1 view .LVU324
 1472 0012 754B     		ldr	r3, .L153
 1473 0014 5A6A     		ldr	r2, [r3, #36]
 1474 0016 22F04002 		bic	r2, r2, #64
 1475 001a 5A62     		str	r2, [r3, #36]
 789:Drivers/STM32G4xx_HAL_Driver/Src/stm32g4xx_hal_pwr_ex.c ****       __HAL_PWR_PVM4_EXTI_DISABLE_IT();
 1476              		.loc 1 789 7 view .LVU325
 1477 001c 1A6A     		ldr	r2, [r3, #32]
 1478 001e 22F04002 		bic	r2, r2, #64
 1479 0022 1A62     		str	r2, [r3, #32]
 790:Drivers/STM32G4xx_HAL_Driver/Src/stm32g4xx_hal_pwr_ex.c ****       __HAL_PWR_PVM4_EXTI_DISABLE_FALLING_EDGE();
 1480              		.loc 1 790 7 view .LVU326
 1481 0024 DA6A     		ldr	r2, [r3, #44]
 1482 0026 22F04002 		bic	r2, r2, #64
 1483 002a DA62     		str	r2, [r3, #44]
 791:Drivers/STM32G4xx_HAL_Driver/Src/stm32g4xx_hal_pwr_ex.c ****       __HAL_PWR_PVM4_EXTI_DISABLE_RISING_EDGE();
 1484              		.loc 1 791 7 view .LVU327
 1485 002c 9A6A     		ldr	r2, [r3, #40]
 1486 002e 22F04002 		bic	r2, r2, #64
 1487 0032 9A62     		str	r2, [r3, #40]
 792:Drivers/STM32G4xx_HAL_Driver/Src/stm32g4xx_hal_pwr_ex.c **** 
 793:Drivers/STM32G4xx_HAL_Driver/Src/stm32g4xx_hal_pwr_ex.c ****       /* Configure interrupt mode */
 794:Drivers/STM32G4xx_HAL_Driver/Src/stm32g4xx_hal_pwr_ex.c ****       if((sConfigPVM->Mode & PVM_MODE_IT) == PVM_MODE_IT)
 1488              		.loc 1 794 7 view .LVU328
 1489              		.loc 1 794 21 is_stmt 0 view .LVU329
 1490 0034 4368     		ldr	r3, [r0, #4]
 1491              		.loc 1 794 9 view .LVU330
 1492 0036 13F4803F 		tst	r3, #65536
 1493 003a 04D0     		beq	.L143
 795:Drivers/STM32G4xx_HAL_Driver/Src/stm32g4xx_hal_pwr_ex.c ****       {
 796:Drivers/STM32G4xx_HAL_Driver/Src/stm32g4xx_hal_pwr_ex.c ****         __HAL_PWR_PVM4_EXTI_ENABLE_IT();
 1494              		.loc 1 796 9 is_stmt 1 view .LVU331
 1495 003c 6A4A     		ldr	r2, .L153
 1496 003e 136A     		ldr	r3, [r2, #32]
 1497 0040 43F04003 		orr	r3, r3, #64
 1498 0044 1362     		str	r3, [r2, #32]
 1499              	.L143:
 797:Drivers/STM32G4xx_HAL_Driver/Src/stm32g4xx_hal_pwr_ex.c ****       }
 798:Drivers/STM32G4xx_HAL_Driver/Src/stm32g4xx_hal_pwr_ex.c **** 
 799:Drivers/STM32G4xx_HAL_Driver/Src/stm32g4xx_hal_pwr_ex.c ****       /* Configure event mode */
 800:Drivers/STM32G4xx_HAL_Driver/Src/stm32g4xx_hal_pwr_ex.c ****       if((sConfigPVM->Mode & PVM_MODE_EVT) == PVM_MODE_EVT)
 1500              		.loc 1 800 7 view .LVU332
 1501              		.loc 1 800 21 is_stmt 0 view .LVU333
 1502 0046 4368     		ldr	r3, [r0, #4]
 1503              		.loc 1 800 9 view .LVU334
 1504 0048 13F4003F 		tst	r3, #131072
 1505 004c 04D0     		beq	.L144
 801:Drivers/STM32G4xx_HAL_Driver/Src/stm32g4xx_hal_pwr_ex.c ****       {
 802:Drivers/STM32G4xx_HAL_Driver/Src/stm32g4xx_hal_pwr_ex.c ****         __HAL_PWR_PVM4_EXTI_ENABLE_EVENT();
 1506              		.loc 1 802 9 is_stmt 1 view .LVU335
ARM GAS  /tmp/cc9EFiwU.s 			page 42


 1507 004e 664A     		ldr	r2, .L153
 1508 0050 536A     		ldr	r3, [r2, #36]
 1509 0052 43F04003 		orr	r3, r3, #64
 1510 0056 5362     		str	r3, [r2, #36]
 1511              	.L144:
 803:Drivers/STM32G4xx_HAL_Driver/Src/stm32g4xx_hal_pwr_ex.c ****       }
 804:Drivers/STM32G4xx_HAL_Driver/Src/stm32g4xx_hal_pwr_ex.c **** 
 805:Drivers/STM32G4xx_HAL_Driver/Src/stm32g4xx_hal_pwr_ex.c ****       /* Configure the edge */
 806:Drivers/STM32G4xx_HAL_Driver/Src/stm32g4xx_hal_pwr_ex.c ****       if((sConfigPVM->Mode & PVM_RISING_EDGE) == PVM_RISING_EDGE)
 1512              		.loc 1 806 7 view .LVU336
 1513              		.loc 1 806 21 is_stmt 0 view .LVU337
 1514 0058 4368     		ldr	r3, [r0, #4]
 1515              		.loc 1 806 9 view .LVU338
 1516 005a 13F0010F 		tst	r3, #1
 1517 005e 04D0     		beq	.L145
 807:Drivers/STM32G4xx_HAL_Driver/Src/stm32g4xx_hal_pwr_ex.c ****       {
 808:Drivers/STM32G4xx_HAL_Driver/Src/stm32g4xx_hal_pwr_ex.c ****         __HAL_PWR_PVM4_EXTI_ENABLE_RISING_EDGE();
 1518              		.loc 1 808 9 is_stmt 1 view .LVU339
 1519 0060 614A     		ldr	r2, .L153
 1520 0062 936A     		ldr	r3, [r2, #40]
 1521 0064 43F04003 		orr	r3, r3, #64
 1522 0068 9362     		str	r3, [r2, #40]
 1523              	.L145:
 809:Drivers/STM32G4xx_HAL_Driver/Src/stm32g4xx_hal_pwr_ex.c ****       }
 810:Drivers/STM32G4xx_HAL_Driver/Src/stm32g4xx_hal_pwr_ex.c **** 
 811:Drivers/STM32G4xx_HAL_Driver/Src/stm32g4xx_hal_pwr_ex.c ****       if((sConfigPVM->Mode & PVM_FALLING_EDGE) == PVM_FALLING_EDGE)
 1524              		.loc 1 811 7 view .LVU340
 1525              		.loc 1 811 21 is_stmt 0 view .LVU341
 1526 006a 4368     		ldr	r3, [r0, #4]
 1527              		.loc 1 811 9 view .LVU342
 1528 006c 13F0020F 		tst	r3, #2
 1529 0070 00F0B880 		beq	.L149
 812:Drivers/STM32G4xx_HAL_Driver/Src/stm32g4xx_hal_pwr_ex.c ****       {
 813:Drivers/STM32G4xx_HAL_Driver/Src/stm32g4xx_hal_pwr_ex.c ****         __HAL_PWR_PVM4_EXTI_ENABLE_FALLING_EDGE();
 1530              		.loc 1 813 9 is_stmt 1 view .LVU343
 1531 0074 5C4A     		ldr	r2, .L153
 1532 0076 D36A     		ldr	r3, [r2, #44]
 1533 0078 43F04003 		orr	r3, r3, #64
 1534 007c D362     		str	r3, [r2, #44]
 677:Drivers/STM32G4xx_HAL_Driver/Src/stm32g4xx_hal_pwr_ex.c **** 
 1535              		.loc 1 677 21 is_stmt 0 view .LVU344
 1536 007e 0020     		movs	r0, #0
 1537              	.LVL115:
 677:Drivers/STM32G4xx_HAL_Driver/Src/stm32g4xx_hal_pwr_ex.c **** 
 1538              		.loc 1 677 21 view .LVU345
 1539 0080 7047     		bx	lr
 1540              	.LVL116:
 1541              	.L150:
 687:Drivers/STM32G4xx_HAL_Driver/Src/stm32g4xx_hal_pwr_ex.c ****   {
 1542              		.loc 1 687 3 view .LVU346
 1543 0082 102B     		cmp	r3, #16
 1544 0084 36D1     		bne	.L152
 692:Drivers/STM32G4xx_HAL_Driver/Src/stm32g4xx_hal_pwr_ex.c ****       __HAL_PWR_PVM1_EXTI_DISABLE_IT();
 1545              		.loc 1 692 7 is_stmt 1 view .LVU347
 1546 0086 584B     		ldr	r3, .L153
 1547 0088 5A6A     		ldr	r2, [r3, #36]
 1548 008a 22F00802 		bic	r2, r2, #8
ARM GAS  /tmp/cc9EFiwU.s 			page 43


 1549 008e 5A62     		str	r2, [r3, #36]
 693:Drivers/STM32G4xx_HAL_Driver/Src/stm32g4xx_hal_pwr_ex.c ****       __HAL_PWR_PVM1_EXTI_DISABLE_FALLING_EDGE();
 1550              		.loc 1 693 7 view .LVU348
 1551 0090 1A6A     		ldr	r2, [r3, #32]
 1552 0092 22F00802 		bic	r2, r2, #8
 1553 0096 1A62     		str	r2, [r3, #32]
 694:Drivers/STM32G4xx_HAL_Driver/Src/stm32g4xx_hal_pwr_ex.c ****       __HAL_PWR_PVM1_EXTI_DISABLE_RISING_EDGE();
 1554              		.loc 1 694 7 view .LVU349
 1555 0098 DA6A     		ldr	r2, [r3, #44]
 1556 009a 22F00802 		bic	r2, r2, #8
 1557 009e DA62     		str	r2, [r3, #44]
 695:Drivers/STM32G4xx_HAL_Driver/Src/stm32g4xx_hal_pwr_ex.c **** 
 1558              		.loc 1 695 7 view .LVU350
 1559 00a0 9A6A     		ldr	r2, [r3, #40]
 1560 00a2 22F00802 		bic	r2, r2, #8
 1561 00a6 9A62     		str	r2, [r3, #40]
 698:Drivers/STM32G4xx_HAL_Driver/Src/stm32g4xx_hal_pwr_ex.c ****       {
 1562              		.loc 1 698 7 view .LVU351
 698:Drivers/STM32G4xx_HAL_Driver/Src/stm32g4xx_hal_pwr_ex.c ****       {
 1563              		.loc 1 698 21 is_stmt 0 view .LVU352
 1564 00a8 4368     		ldr	r3, [r0, #4]
 698:Drivers/STM32G4xx_HAL_Driver/Src/stm32g4xx_hal_pwr_ex.c ****       {
 1565              		.loc 1 698 9 view .LVU353
 1566 00aa 13F4803F 		tst	r3, #65536
 1567 00ae 04D0     		beq	.L134
 700:Drivers/STM32G4xx_HAL_Driver/Src/stm32g4xx_hal_pwr_ex.c ****       }
 1568              		.loc 1 700 9 is_stmt 1 view .LVU354
 1569 00b0 4D4A     		ldr	r2, .L153
 1570 00b2 136A     		ldr	r3, [r2, #32]
 1571 00b4 43F00803 		orr	r3, r3, #8
 1572 00b8 1362     		str	r3, [r2, #32]
 1573              	.L134:
 704:Drivers/STM32G4xx_HAL_Driver/Src/stm32g4xx_hal_pwr_ex.c ****       {
 1574              		.loc 1 704 7 view .LVU355
 704:Drivers/STM32G4xx_HAL_Driver/Src/stm32g4xx_hal_pwr_ex.c ****       {
 1575              		.loc 1 704 21 is_stmt 0 view .LVU356
 1576 00ba 4368     		ldr	r3, [r0, #4]
 704:Drivers/STM32G4xx_HAL_Driver/Src/stm32g4xx_hal_pwr_ex.c ****       {
 1577              		.loc 1 704 9 view .LVU357
 1578 00bc 13F4003F 		tst	r3, #131072
 1579 00c0 04D0     		beq	.L135
 706:Drivers/STM32G4xx_HAL_Driver/Src/stm32g4xx_hal_pwr_ex.c ****       }
 1580              		.loc 1 706 9 is_stmt 1 view .LVU358
 1581 00c2 494A     		ldr	r2, .L153
 1582 00c4 536A     		ldr	r3, [r2, #36]
 1583 00c6 43F00803 		orr	r3, r3, #8
 1584 00ca 5362     		str	r3, [r2, #36]
 1585              	.L135:
 710:Drivers/STM32G4xx_HAL_Driver/Src/stm32g4xx_hal_pwr_ex.c ****       {
 1586              		.loc 1 710 7 view .LVU359
 710:Drivers/STM32G4xx_HAL_Driver/Src/stm32g4xx_hal_pwr_ex.c ****       {
 1587              		.loc 1 710 21 is_stmt 0 view .LVU360
 1588 00cc 4368     		ldr	r3, [r0, #4]
 710:Drivers/STM32G4xx_HAL_Driver/Src/stm32g4xx_hal_pwr_ex.c ****       {
 1589              		.loc 1 710 9 view .LVU361
 1590 00ce 13F0010F 		tst	r3, #1
 1591 00d2 04D0     		beq	.L136
ARM GAS  /tmp/cc9EFiwU.s 			page 44


 712:Drivers/STM32G4xx_HAL_Driver/Src/stm32g4xx_hal_pwr_ex.c ****       }
 1592              		.loc 1 712 9 is_stmt 1 view .LVU362
 1593 00d4 444A     		ldr	r2, .L153
 1594 00d6 936A     		ldr	r3, [r2, #40]
 1595 00d8 43F00803 		orr	r3, r3, #8
 1596 00dc 9362     		str	r3, [r2, #40]
 1597              	.L136:
 715:Drivers/STM32G4xx_HAL_Driver/Src/stm32g4xx_hal_pwr_ex.c ****       {
 1598              		.loc 1 715 7 view .LVU363
 715:Drivers/STM32G4xx_HAL_Driver/Src/stm32g4xx_hal_pwr_ex.c ****       {
 1599              		.loc 1 715 21 is_stmt 0 view .LVU364
 1600 00de 4368     		ldr	r3, [r0, #4]
 715:Drivers/STM32G4xx_HAL_Driver/Src/stm32g4xx_hal_pwr_ex.c ****       {
 1601              		.loc 1 715 9 view .LVU365
 1602 00e0 13F0020F 		tst	r3, #2
 1603 00e4 78D0     		beq	.L146
 717:Drivers/STM32G4xx_HAL_Driver/Src/stm32g4xx_hal_pwr_ex.c ****       }
 1604              		.loc 1 717 9 is_stmt 1 view .LVU366
 1605 00e6 404A     		ldr	r2, .L153
 1606 00e8 D36A     		ldr	r3, [r2, #44]
 1607 00ea 43F00803 		orr	r3, r3, #8
 1608 00ee D362     		str	r3, [r2, #44]
 677:Drivers/STM32G4xx_HAL_Driver/Src/stm32g4xx_hal_pwr_ex.c **** 
 1609              		.loc 1 677 21 is_stmt 0 view .LVU367
 1610 00f0 0020     		movs	r0, #0
 1611              	.LVL117:
 677:Drivers/STM32G4xx_HAL_Driver/Src/stm32g4xx_hal_pwr_ex.c **** 
 1612              		.loc 1 677 21 view .LVU368
 1613 00f2 7047     		bx	lr
 1614              	.LVL118:
 1615              	.L152:
 814:Drivers/STM32G4xx_HAL_Driver/Src/stm32g4xx_hal_pwr_ex.c ****       }
 815:Drivers/STM32G4xx_HAL_Driver/Src/stm32g4xx_hal_pwr_ex.c ****       break;
 816:Drivers/STM32G4xx_HAL_Driver/Src/stm32g4xx_hal_pwr_ex.c **** 
 817:Drivers/STM32G4xx_HAL_Driver/Src/stm32g4xx_hal_pwr_ex.c ****     default:
 818:Drivers/STM32G4xx_HAL_Driver/Src/stm32g4xx_hal_pwr_ex.c ****       status = HAL_ERROR;
 1616              		.loc 1 818 14 view .LVU369
 1617 00f4 0120     		movs	r0, #1
 1618              	.LVL119:
 1619              		.loc 1 818 14 view .LVU370
 1620 00f6 7047     		bx	lr
 1621              	.LVL120:
 1622              	.L151:
 1623              		.loc 1 818 14 view .LVU371
 1624 00f8 0120     		movs	r0, #1
 1625              	.LVL121:
 1626              		.loc 1 818 14 view .LVU372
 1627 00fa 7047     		bx	lr
 1628              	.LVL122:
 1629              	.L128:
 725:Drivers/STM32G4xx_HAL_Driver/Src/stm32g4xx_hal_pwr_ex.c ****       __HAL_PWR_PVM2_EXTI_DISABLE_IT();
 1630              		.loc 1 725 7 is_stmt 1 view .LVU373
 1631 00fc 3A4B     		ldr	r3, .L153
 1632 00fe 5A6A     		ldr	r2, [r3, #36]
 1633 0100 22F01002 		bic	r2, r2, #16
 1634 0104 5A62     		str	r2, [r3, #36]
 726:Drivers/STM32G4xx_HAL_Driver/Src/stm32g4xx_hal_pwr_ex.c ****       __HAL_PWR_PVM2_EXTI_DISABLE_FALLING_EDGE();
ARM GAS  /tmp/cc9EFiwU.s 			page 45


 1635              		.loc 1 726 7 view .LVU374
 1636 0106 1A6A     		ldr	r2, [r3, #32]
 1637 0108 22F01002 		bic	r2, r2, #16
 1638 010c 1A62     		str	r2, [r3, #32]
 727:Drivers/STM32G4xx_HAL_Driver/Src/stm32g4xx_hal_pwr_ex.c ****       __HAL_PWR_PVM2_EXTI_DISABLE_RISING_EDGE();
 1639              		.loc 1 727 7 view .LVU375
 1640 010e DA6A     		ldr	r2, [r3, #44]
 1641 0110 22F01002 		bic	r2, r2, #16
 1642 0114 DA62     		str	r2, [r3, #44]
 728:Drivers/STM32G4xx_HAL_Driver/Src/stm32g4xx_hal_pwr_ex.c **** 
 1643              		.loc 1 728 7 view .LVU376
 1644 0116 9A6A     		ldr	r2, [r3, #40]
 1645 0118 22F01002 		bic	r2, r2, #16
 1646 011c 9A62     		str	r2, [r3, #40]
 731:Drivers/STM32G4xx_HAL_Driver/Src/stm32g4xx_hal_pwr_ex.c ****       {
 1647              		.loc 1 731 7 view .LVU377
 731:Drivers/STM32G4xx_HAL_Driver/Src/stm32g4xx_hal_pwr_ex.c ****       {
 1648              		.loc 1 731 21 is_stmt 0 view .LVU378
 1649 011e 4368     		ldr	r3, [r0, #4]
 731:Drivers/STM32G4xx_HAL_Driver/Src/stm32g4xx_hal_pwr_ex.c ****       {
 1650              		.loc 1 731 9 view .LVU379
 1651 0120 13F4803F 		tst	r3, #65536
 1652 0124 04D0     		beq	.L137
 733:Drivers/STM32G4xx_HAL_Driver/Src/stm32g4xx_hal_pwr_ex.c ****       }
 1653              		.loc 1 733 9 is_stmt 1 view .LVU380
 1654 0126 304A     		ldr	r2, .L153
 1655 0128 136A     		ldr	r3, [r2, #32]
 1656 012a 43F01003 		orr	r3, r3, #16
 1657 012e 1362     		str	r3, [r2, #32]
 1658              	.L137:
 737:Drivers/STM32G4xx_HAL_Driver/Src/stm32g4xx_hal_pwr_ex.c ****       {
 1659              		.loc 1 737 7 view .LVU381
 737:Drivers/STM32G4xx_HAL_Driver/Src/stm32g4xx_hal_pwr_ex.c ****       {
 1660              		.loc 1 737 21 is_stmt 0 view .LVU382
 1661 0130 4368     		ldr	r3, [r0, #4]
 737:Drivers/STM32G4xx_HAL_Driver/Src/stm32g4xx_hal_pwr_ex.c ****       {
 1662              		.loc 1 737 9 view .LVU383
 1663 0132 13F4003F 		tst	r3, #131072
 1664 0136 04D0     		beq	.L138
 739:Drivers/STM32G4xx_HAL_Driver/Src/stm32g4xx_hal_pwr_ex.c ****       }
 1665              		.loc 1 739 9 is_stmt 1 view .LVU384
 1666 0138 2B4A     		ldr	r2, .L153
 1667 013a 536A     		ldr	r3, [r2, #36]
 1668 013c 43F01003 		orr	r3, r3, #16
 1669 0140 5362     		str	r3, [r2, #36]
 1670              	.L138:
 743:Drivers/STM32G4xx_HAL_Driver/Src/stm32g4xx_hal_pwr_ex.c ****       {
 1671              		.loc 1 743 7 view .LVU385
 743:Drivers/STM32G4xx_HAL_Driver/Src/stm32g4xx_hal_pwr_ex.c ****       {
 1672              		.loc 1 743 21 is_stmt 0 view .LVU386
 1673 0142 4368     		ldr	r3, [r0, #4]
 743:Drivers/STM32G4xx_HAL_Driver/Src/stm32g4xx_hal_pwr_ex.c ****       {
 1674              		.loc 1 743 9 view .LVU387
 1675 0144 13F0010F 		tst	r3, #1
 1676 0148 04D0     		beq	.L139
 745:Drivers/STM32G4xx_HAL_Driver/Src/stm32g4xx_hal_pwr_ex.c ****       }
 1677              		.loc 1 745 9 is_stmt 1 view .LVU388
ARM GAS  /tmp/cc9EFiwU.s 			page 46


 1678 014a 274A     		ldr	r2, .L153
 1679 014c 936A     		ldr	r3, [r2, #40]
 1680 014e 43F01003 		orr	r3, r3, #16
 1681 0152 9362     		str	r3, [r2, #40]
 1682              	.L139:
 748:Drivers/STM32G4xx_HAL_Driver/Src/stm32g4xx_hal_pwr_ex.c ****       {
 1683              		.loc 1 748 7 view .LVU389
 748:Drivers/STM32G4xx_HAL_Driver/Src/stm32g4xx_hal_pwr_ex.c ****       {
 1684              		.loc 1 748 21 is_stmt 0 view .LVU390
 1685 0154 4368     		ldr	r3, [r0, #4]
 748:Drivers/STM32G4xx_HAL_Driver/Src/stm32g4xx_hal_pwr_ex.c ****       {
 1686              		.loc 1 748 9 view .LVU391
 1687 0156 13F0020F 		tst	r3, #2
 1688 015a 3FD0     		beq	.L147
 750:Drivers/STM32G4xx_HAL_Driver/Src/stm32g4xx_hal_pwr_ex.c ****       }
 1689              		.loc 1 750 9 is_stmt 1 view .LVU392
 1690 015c 224A     		ldr	r2, .L153
 1691 015e D36A     		ldr	r3, [r2, #44]
 1692 0160 43F01003 		orr	r3, r3, #16
 1693 0164 D362     		str	r3, [r2, #44]
 677:Drivers/STM32G4xx_HAL_Driver/Src/stm32g4xx_hal_pwr_ex.c **** 
 1694              		.loc 1 677 21 is_stmt 0 view .LVU393
 1695 0166 0020     		movs	r0, #0
 1696              	.LVL123:
 677:Drivers/STM32G4xx_HAL_Driver/Src/stm32g4xx_hal_pwr_ex.c **** 
 1697              		.loc 1 677 21 view .LVU394
 1698 0168 7047     		bx	lr
 1699              	.LVL124:
 1700              	.L132:
 757:Drivers/STM32G4xx_HAL_Driver/Src/stm32g4xx_hal_pwr_ex.c ****       __HAL_PWR_PVM3_EXTI_DISABLE_IT();
 1701              		.loc 1 757 7 is_stmt 1 view .LVU395
 1702 016a 1F4B     		ldr	r3, .L153
 1703 016c 5A6A     		ldr	r2, [r3, #36]
 1704 016e 22F02002 		bic	r2, r2, #32
 1705 0172 5A62     		str	r2, [r3, #36]
 758:Drivers/STM32G4xx_HAL_Driver/Src/stm32g4xx_hal_pwr_ex.c ****       __HAL_PWR_PVM3_EXTI_DISABLE_FALLING_EDGE();
 1706              		.loc 1 758 7 view .LVU396
 1707 0174 1A6A     		ldr	r2, [r3, #32]
 1708 0176 22F02002 		bic	r2, r2, #32
 1709 017a 1A62     		str	r2, [r3, #32]
 759:Drivers/STM32G4xx_HAL_Driver/Src/stm32g4xx_hal_pwr_ex.c ****       __HAL_PWR_PVM3_EXTI_DISABLE_RISING_EDGE();
 1710              		.loc 1 759 7 view .LVU397
 1711 017c DA6A     		ldr	r2, [r3, #44]
 1712 017e 22F02002 		bic	r2, r2, #32
 1713 0182 DA62     		str	r2, [r3, #44]
 760:Drivers/STM32G4xx_HAL_Driver/Src/stm32g4xx_hal_pwr_ex.c **** 
 1714              		.loc 1 760 7 view .LVU398
 1715 0184 9A6A     		ldr	r2, [r3, #40]
 1716 0186 22F02002 		bic	r2, r2, #32
 1717 018a 9A62     		str	r2, [r3, #40]
 763:Drivers/STM32G4xx_HAL_Driver/Src/stm32g4xx_hal_pwr_ex.c ****       {
 1718              		.loc 1 763 7 view .LVU399
 763:Drivers/STM32G4xx_HAL_Driver/Src/stm32g4xx_hal_pwr_ex.c ****       {
 1719              		.loc 1 763 21 is_stmt 0 view .LVU400
 1720 018c 4368     		ldr	r3, [r0, #4]
 763:Drivers/STM32G4xx_HAL_Driver/Src/stm32g4xx_hal_pwr_ex.c ****       {
 1721              		.loc 1 763 9 view .LVU401
ARM GAS  /tmp/cc9EFiwU.s 			page 47


 1722 018e 13F4803F 		tst	r3, #65536
 1723 0192 04D0     		beq	.L140
 765:Drivers/STM32G4xx_HAL_Driver/Src/stm32g4xx_hal_pwr_ex.c ****       }
 1724              		.loc 1 765 9 is_stmt 1 view .LVU402
 1725 0194 144A     		ldr	r2, .L153
 1726 0196 136A     		ldr	r3, [r2, #32]
 1727 0198 43F02003 		orr	r3, r3, #32
 1728 019c 1362     		str	r3, [r2, #32]
 1729              	.L140:
 769:Drivers/STM32G4xx_HAL_Driver/Src/stm32g4xx_hal_pwr_ex.c ****       {
 1730              		.loc 1 769 7 view .LVU403
 769:Drivers/STM32G4xx_HAL_Driver/Src/stm32g4xx_hal_pwr_ex.c ****       {
 1731              		.loc 1 769 21 is_stmt 0 view .LVU404
 1732 019e 4368     		ldr	r3, [r0, #4]
 769:Drivers/STM32G4xx_HAL_Driver/Src/stm32g4xx_hal_pwr_ex.c ****       {
 1733              		.loc 1 769 9 view .LVU405
 1734 01a0 13F4003F 		tst	r3, #131072
 1735 01a4 04D0     		beq	.L141
 771:Drivers/STM32G4xx_HAL_Driver/Src/stm32g4xx_hal_pwr_ex.c ****       }
 1736              		.loc 1 771 9 is_stmt 1 view .LVU406
 1737 01a6 104A     		ldr	r2, .L153
 1738 01a8 536A     		ldr	r3, [r2, #36]
 1739 01aa 43F02003 		orr	r3, r3, #32
 1740 01ae 5362     		str	r3, [r2, #36]
 1741              	.L141:
 775:Drivers/STM32G4xx_HAL_Driver/Src/stm32g4xx_hal_pwr_ex.c ****       {
 1742              		.loc 1 775 7 view .LVU407
 775:Drivers/STM32G4xx_HAL_Driver/Src/stm32g4xx_hal_pwr_ex.c ****       {
 1743              		.loc 1 775 21 is_stmt 0 view .LVU408
 1744 01b0 4368     		ldr	r3, [r0, #4]
 775:Drivers/STM32G4xx_HAL_Driver/Src/stm32g4xx_hal_pwr_ex.c ****       {
 1745              		.loc 1 775 9 view .LVU409
 1746 01b2 13F0010F 		tst	r3, #1
 1747 01b6 04D0     		beq	.L142
 777:Drivers/STM32G4xx_HAL_Driver/Src/stm32g4xx_hal_pwr_ex.c ****       }
 1748              		.loc 1 777 9 is_stmt 1 view .LVU410
 1749 01b8 0B4A     		ldr	r2, .L153
 1750 01ba 936A     		ldr	r3, [r2, #40]
 1751 01bc 43F02003 		orr	r3, r3, #32
 1752 01c0 9362     		str	r3, [r2, #40]
 1753              	.L142:
 780:Drivers/STM32G4xx_HAL_Driver/Src/stm32g4xx_hal_pwr_ex.c ****       {
 1754              		.loc 1 780 7 view .LVU411
 780:Drivers/STM32G4xx_HAL_Driver/Src/stm32g4xx_hal_pwr_ex.c ****       {
 1755              		.loc 1 780 21 is_stmt 0 view .LVU412
 1756 01c2 4368     		ldr	r3, [r0, #4]
 780:Drivers/STM32G4xx_HAL_Driver/Src/stm32g4xx_hal_pwr_ex.c ****       {
 1757              		.loc 1 780 9 view .LVU413
 1758 01c4 13F0020F 		tst	r3, #2
 1759 01c8 0AD0     		beq	.L148
 782:Drivers/STM32G4xx_HAL_Driver/Src/stm32g4xx_hal_pwr_ex.c ****       }
 1760              		.loc 1 782 9 is_stmt 1 view .LVU414
 1761 01ca 074A     		ldr	r2, .L153
 1762 01cc D36A     		ldr	r3, [r2, #44]
 1763 01ce 43F02003 		orr	r3, r3, #32
 1764 01d2 D362     		str	r3, [r2, #44]
 677:Drivers/STM32G4xx_HAL_Driver/Src/stm32g4xx_hal_pwr_ex.c **** 
ARM GAS  /tmp/cc9EFiwU.s 			page 48


 1765              		.loc 1 677 21 is_stmt 0 view .LVU415
 1766 01d4 0020     		movs	r0, #0
 1767              	.LVL125:
 677:Drivers/STM32G4xx_HAL_Driver/Src/stm32g4xx_hal_pwr_ex.c **** 
 1768              		.loc 1 677 21 view .LVU416
 1769 01d6 7047     		bx	lr
 1770              	.LVL126:
 1771              	.L146:
 677:Drivers/STM32G4xx_HAL_Driver/Src/stm32g4xx_hal_pwr_ex.c **** 
 1772              		.loc 1 677 21 view .LVU417
 1773 01d8 0020     		movs	r0, #0
 1774              	.LVL127:
 677:Drivers/STM32G4xx_HAL_Driver/Src/stm32g4xx_hal_pwr_ex.c **** 
 1775              		.loc 1 677 21 view .LVU418
 1776 01da 7047     		bx	lr
 1777              	.LVL128:
 1778              	.L147:
 677:Drivers/STM32G4xx_HAL_Driver/Src/stm32g4xx_hal_pwr_ex.c **** 
 1779              		.loc 1 677 21 view .LVU419
 1780 01dc 0020     		movs	r0, #0
 1781              	.LVL129:
 677:Drivers/STM32G4xx_HAL_Driver/Src/stm32g4xx_hal_pwr_ex.c **** 
 1782              		.loc 1 677 21 view .LVU420
 1783 01de 7047     		bx	lr
 1784              	.LVL130:
 1785              	.L148:
 677:Drivers/STM32G4xx_HAL_Driver/Src/stm32g4xx_hal_pwr_ex.c **** 
 1786              		.loc 1 677 21 view .LVU421
 1787 01e0 0020     		movs	r0, #0
 1788              	.LVL131:
 677:Drivers/STM32G4xx_HAL_Driver/Src/stm32g4xx_hal_pwr_ex.c **** 
 1789              		.loc 1 677 21 view .LVU422
 1790 01e2 7047     		bx	lr
 1791              	.LVL132:
 1792              	.L149:
 677:Drivers/STM32G4xx_HAL_Driver/Src/stm32g4xx_hal_pwr_ex.c **** 
 1793              		.loc 1 677 21 view .LVU423
 1794 01e4 0020     		movs	r0, #0
 1795              	.LVL133:
 819:Drivers/STM32G4xx_HAL_Driver/Src/stm32g4xx_hal_pwr_ex.c ****       break;
 820:Drivers/STM32G4xx_HAL_Driver/Src/stm32g4xx_hal_pwr_ex.c ****   }
 821:Drivers/STM32G4xx_HAL_Driver/Src/stm32g4xx_hal_pwr_ex.c **** 
 822:Drivers/STM32G4xx_HAL_Driver/Src/stm32g4xx_hal_pwr_ex.c ****   return status;
 1796              		.loc 1 822 3 is_stmt 1 view .LVU424
 823:Drivers/STM32G4xx_HAL_Driver/Src/stm32g4xx_hal_pwr_ex.c **** }
 1797              		.loc 1 823 1 is_stmt 0 view .LVU425
 1798 01e6 7047     		bx	lr
 1799              	.L154:
 1800              		.align	2
 1801              	.L153:
 1802 01e8 00040140 		.word	1073808384
 1803              		.cfi_endproc
 1804              	.LFE347:
 1806              		.section	.text.HAL_PWREx_EnableUSBDeadBatteryPD,"ax",%progbits
 1807              		.align	1
 1808              		.global	HAL_PWREx_EnableUSBDeadBatteryPD
 1809              		.syntax unified
ARM GAS  /tmp/cc9EFiwU.s 			page 49


 1810              		.thumb
 1811              		.thumb_func
 1812              		.fpu fpv4-sp-d16
 1814              	HAL_PWREx_EnableUSBDeadBatteryPD:
 1815              	.LFB348:
 824:Drivers/STM32G4xx_HAL_Driver/Src/stm32g4xx_hal_pwr_ex.c **** 
 825:Drivers/STM32G4xx_HAL_Driver/Src/stm32g4xx_hal_pwr_ex.c **** #if defined(PWR_CR3_UCPD_DBDIS)
 826:Drivers/STM32G4xx_HAL_Driver/Src/stm32g4xx_hal_pwr_ex.c **** /**
 827:Drivers/STM32G4xx_HAL_Driver/Src/stm32g4xx_hal_pwr_ex.c ****   * @brief Enable the USB Type-C dead battery pull-down behavior
 828:Drivers/STM32G4xx_HAL_Driver/Src/stm32g4xx_hal_pwr_ex.c ****   *        on UCPDx_CC1 and UCPDx_CC2 pins
 829:Drivers/STM32G4xx_HAL_Driver/Src/stm32g4xx_hal_pwr_ex.c ****   * @note After exiting reset, the USB Type-C dead battery behavior will be enabled,
 830:Drivers/STM32G4xx_HAL_Driver/Src/stm32g4xx_hal_pwr_ex.c ****   *       which may have a pull-down effect on CC1 and CC2 pins.
 831:Drivers/STM32G4xx_HAL_Driver/Src/stm32g4xx_hal_pwr_ex.c ****   *       It is recommended to disable it in all cases, either to stop this pull-down
 832:Drivers/STM32G4xx_HAL_Driver/Src/stm32g4xx_hal_pwr_ex.c ****   *       or to hand over control to the UCPD (which should therefore be
 833:Drivers/STM32G4xx_HAL_Driver/Src/stm32g4xx_hal_pwr_ex.c ****   *       initialized before doing the disable).
 834:Drivers/STM32G4xx_HAL_Driver/Src/stm32g4xx_hal_pwr_ex.c ****   * @retval None
 835:Drivers/STM32G4xx_HAL_Driver/Src/stm32g4xx_hal_pwr_ex.c ****   */
 836:Drivers/STM32G4xx_HAL_Driver/Src/stm32g4xx_hal_pwr_ex.c **** void HAL_PWREx_EnableUSBDeadBatteryPD(void)
 837:Drivers/STM32G4xx_HAL_Driver/Src/stm32g4xx_hal_pwr_ex.c **** {
 1816              		.loc 1 837 1 is_stmt 1 view -0
 1817              		.cfi_startproc
 1818              		@ args = 0, pretend = 0, frame = 0
 1819              		@ frame_needed = 0, uses_anonymous_args = 0
 1820              		@ link register save eliminated.
 838:Drivers/STM32G4xx_HAL_Driver/Src/stm32g4xx_hal_pwr_ex.c ****    /* writing 0 to enable the USB Type-C dead battery pull-down behavior */
 839:Drivers/STM32G4xx_HAL_Driver/Src/stm32g4xx_hal_pwr_ex.c ****    CLEAR_BIT(PWR->CR3, PWR_CR3_UCPD_DBDIS);
 1821              		.loc 1 839 4 view .LVU427
 1822 0000 024A     		ldr	r2, .L156
 1823 0002 9368     		ldr	r3, [r2, #8]
 1824 0004 23F48043 		bic	r3, r3, #16384
 1825 0008 9360     		str	r3, [r2, #8]
 840:Drivers/STM32G4xx_HAL_Driver/Src/stm32g4xx_hal_pwr_ex.c **** }
 1826              		.loc 1 840 1 is_stmt 0 view .LVU428
 1827 000a 7047     		bx	lr
 1828              	.L157:
 1829              		.align	2
 1830              	.L156:
 1831 000c 00700040 		.word	1073770496
 1832              		.cfi_endproc
 1833              	.LFE348:
 1835              		.section	.text.HAL_PWREx_DisableUSBDeadBatteryPD,"ax",%progbits
 1836              		.align	1
 1837              		.global	HAL_PWREx_DisableUSBDeadBatteryPD
 1838              		.syntax unified
 1839              		.thumb
 1840              		.thumb_func
 1841              		.fpu fpv4-sp-d16
 1843              	HAL_PWREx_DisableUSBDeadBatteryPD:
 1844              	.LFB349:
 841:Drivers/STM32G4xx_HAL_Driver/Src/stm32g4xx_hal_pwr_ex.c **** 
 842:Drivers/STM32G4xx_HAL_Driver/Src/stm32g4xx_hal_pwr_ex.c **** /**
 843:Drivers/STM32G4xx_HAL_Driver/Src/stm32g4xx_hal_pwr_ex.c ****   * @brief Disable the USB Type-C dead battery pull-down behavior
 844:Drivers/STM32G4xx_HAL_Driver/Src/stm32g4xx_hal_pwr_ex.c ****   *        on UCPDx_CC1 and UCPDx_CC2 pins
 845:Drivers/STM32G4xx_HAL_Driver/Src/stm32g4xx_hal_pwr_ex.c ****   * @note After exiting reset, the USB Type-C dead battery behavior will be enabled,
 846:Drivers/STM32G4xx_HAL_Driver/Src/stm32g4xx_hal_pwr_ex.c ****   *       which may have a pull-down effect on CC1 and CC2 pins.
 847:Drivers/STM32G4xx_HAL_Driver/Src/stm32g4xx_hal_pwr_ex.c ****   *       It is recommended to disable it in all cases, either to stop this pull-down
 848:Drivers/STM32G4xx_HAL_Driver/Src/stm32g4xx_hal_pwr_ex.c ****   *       or to hand over control to the UCPD (which should therefore be
ARM GAS  /tmp/cc9EFiwU.s 			page 50


 849:Drivers/STM32G4xx_HAL_Driver/Src/stm32g4xx_hal_pwr_ex.c ****   *       initialized before doing the disable).
 850:Drivers/STM32G4xx_HAL_Driver/Src/stm32g4xx_hal_pwr_ex.c ****   * @retval None
 851:Drivers/STM32G4xx_HAL_Driver/Src/stm32g4xx_hal_pwr_ex.c ****   */
 852:Drivers/STM32G4xx_HAL_Driver/Src/stm32g4xx_hal_pwr_ex.c **** void HAL_PWREx_DisableUSBDeadBatteryPD(void)
 853:Drivers/STM32G4xx_HAL_Driver/Src/stm32g4xx_hal_pwr_ex.c **** {
 1845              		.loc 1 853 1 is_stmt 1 view -0
 1846              		.cfi_startproc
 1847              		@ args = 0, pretend = 0, frame = 0
 1848              		@ frame_needed = 0, uses_anonymous_args = 0
 1849              		@ link register save eliminated.
 854:Drivers/STM32G4xx_HAL_Driver/Src/stm32g4xx_hal_pwr_ex.c ****    /* writing 1 to disable the USB Type-C dead battery pull-down behavior */
 855:Drivers/STM32G4xx_HAL_Driver/Src/stm32g4xx_hal_pwr_ex.c ****    SET_BIT(PWR->CR3, PWR_CR3_UCPD_DBDIS);
 1850              		.loc 1 855 4 view .LVU430
 1851 0000 024A     		ldr	r2, .L159
 1852 0002 9368     		ldr	r3, [r2, #8]
 1853 0004 43F48043 		orr	r3, r3, #16384
 1854 0008 9360     		str	r3, [r2, #8]
 856:Drivers/STM32G4xx_HAL_Driver/Src/stm32g4xx_hal_pwr_ex.c **** }
 1855              		.loc 1 856 1 is_stmt 0 view .LVU431
 1856 000a 7047     		bx	lr
 1857              	.L160:
 1858              		.align	2
 1859              	.L159:
 1860 000c 00700040 		.word	1073770496
 1861              		.cfi_endproc
 1862              	.LFE349:
 1864              		.section	.text.HAL_PWREx_EnableUSBStandByModePD,"ax",%progbits
 1865              		.align	1
 1866              		.global	HAL_PWREx_EnableUSBStandByModePD
 1867              		.syntax unified
 1868              		.thumb
 1869              		.thumb_func
 1870              		.fpu fpv4-sp-d16
 1872              	HAL_PWREx_EnableUSBStandByModePD:
 1873              	.LFB350:
 857:Drivers/STM32G4xx_HAL_Driver/Src/stm32g4xx_hal_pwr_ex.c **** #endif /* PWR_CR3_UCPD_DBDIS */
 858:Drivers/STM32G4xx_HAL_Driver/Src/stm32g4xx_hal_pwr_ex.c **** 
 859:Drivers/STM32G4xx_HAL_Driver/Src/stm32g4xx_hal_pwr_ex.c **** #if defined(PWR_CR3_UCPD_STDBY)
 860:Drivers/STM32G4xx_HAL_Driver/Src/stm32g4xx_hal_pwr_ex.c **** /**
 861:Drivers/STM32G4xx_HAL_Driver/Src/stm32g4xx_hal_pwr_ex.c ****   * @brief Enable the USB Type-C and Power Delivery standby mode
 862:Drivers/STM32G4xx_HAL_Driver/Src/stm32g4xx_hal_pwr_ex.c ****   * @retval None
 863:Drivers/STM32G4xx_HAL_Driver/Src/stm32g4xx_hal_pwr_ex.c ****   */
 864:Drivers/STM32G4xx_HAL_Driver/Src/stm32g4xx_hal_pwr_ex.c **** void HAL_PWREx_EnableUSBStandByModePD(void)
 865:Drivers/STM32G4xx_HAL_Driver/Src/stm32g4xx_hal_pwr_ex.c **** {
 1874              		.loc 1 865 1 is_stmt 1 view -0
 1875              		.cfi_startproc
 1876              		@ args = 0, pretend = 0, frame = 0
 1877              		@ frame_needed = 0, uses_anonymous_args = 0
 1878              		@ link register save eliminated.
 866:Drivers/STM32G4xx_HAL_Driver/Src/stm32g4xx_hal_pwr_ex.c ****    /* Write 1 just before entering Standby when using UCPD */
 867:Drivers/STM32G4xx_HAL_Driver/Src/stm32g4xx_hal_pwr_ex.c ****    SET_BIT(PWR->CR3, PWR_CR3_UCPD_STDBY);
 1879              		.loc 1 867 4 view .LVU433
 1880 0000 024A     		ldr	r2, .L162
 1881 0002 9368     		ldr	r3, [r2, #8]
 1882 0004 43F40053 		orr	r3, r3, #8192
 1883 0008 9360     		str	r3, [r2, #8]
 868:Drivers/STM32G4xx_HAL_Driver/Src/stm32g4xx_hal_pwr_ex.c **** }
ARM GAS  /tmp/cc9EFiwU.s 			page 51


 1884              		.loc 1 868 1 is_stmt 0 view .LVU434
 1885 000a 7047     		bx	lr
 1886              	.L163:
 1887              		.align	2
 1888              	.L162:
 1889 000c 00700040 		.word	1073770496
 1890              		.cfi_endproc
 1891              	.LFE350:
 1893              		.section	.text.HAL_PWREx_DisableUSBStandByModePD,"ax",%progbits
 1894              		.align	1
 1895              		.global	HAL_PWREx_DisableUSBStandByModePD
 1896              		.syntax unified
 1897              		.thumb
 1898              		.thumb_func
 1899              		.fpu fpv4-sp-d16
 1901              	HAL_PWREx_DisableUSBStandByModePD:
 1902              	.LFB351:
 869:Drivers/STM32G4xx_HAL_Driver/Src/stm32g4xx_hal_pwr_ex.c **** 
 870:Drivers/STM32G4xx_HAL_Driver/Src/stm32g4xx_hal_pwr_ex.c **** /**
 871:Drivers/STM32G4xx_HAL_Driver/Src/stm32g4xx_hal_pwr_ex.c ****   * @brief Disable the USB Type-C and Power Delivery standby mode
 872:Drivers/STM32G4xx_HAL_Driver/Src/stm32g4xx_hal_pwr_ex.c ****   * @retval None
 873:Drivers/STM32G4xx_HAL_Driver/Src/stm32g4xx_hal_pwr_ex.c ****   */
 874:Drivers/STM32G4xx_HAL_Driver/Src/stm32g4xx_hal_pwr_ex.c **** void HAL_PWREx_DisableUSBStandByModePD (void)
 875:Drivers/STM32G4xx_HAL_Driver/Src/stm32g4xx_hal_pwr_ex.c **** {
 1903              		.loc 1 875 1 is_stmt 1 view -0
 1904              		.cfi_startproc
 1905              		@ args = 0, pretend = 0, frame = 0
 1906              		@ frame_needed = 0, uses_anonymous_args = 0
 1907              		@ link register save eliminated.
 876:Drivers/STM32G4xx_HAL_Driver/Src/stm32g4xx_hal_pwr_ex.c ****    /* Write 0 immediately after Standby exit when using UCPD,
 877:Drivers/STM32G4xx_HAL_Driver/Src/stm32g4xx_hal_pwr_ex.c ****       and before writing any UCPD registers */
 878:Drivers/STM32G4xx_HAL_Driver/Src/stm32g4xx_hal_pwr_ex.c ****    CLEAR_BIT(PWR->CR3, PWR_CR3_UCPD_STDBY);
 1908              		.loc 1 878 4 view .LVU436
 1909 0000 024A     		ldr	r2, .L165
 1910 0002 9368     		ldr	r3, [r2, #8]
 1911 0004 23F40053 		bic	r3, r3, #8192
 1912 0008 9360     		str	r3, [r2, #8]
 879:Drivers/STM32G4xx_HAL_Driver/Src/stm32g4xx_hal_pwr_ex.c **** }
 1913              		.loc 1 879 1 is_stmt 0 view .LVU437
 1914 000a 7047     		bx	lr
 1915              	.L166:
 1916              		.align	2
 1917              	.L165:
 1918 000c 00700040 		.word	1073770496
 1919              		.cfi_endproc
 1920              	.LFE351:
 1922              		.section	.text.HAL_PWREx_EnableLowPowerRunMode,"ax",%progbits
 1923              		.align	1
 1924              		.global	HAL_PWREx_EnableLowPowerRunMode
 1925              		.syntax unified
 1926              		.thumb
 1927              		.thumb_func
 1928              		.fpu fpv4-sp-d16
 1930              	HAL_PWREx_EnableLowPowerRunMode:
 1931              	.LFB352:
 880:Drivers/STM32G4xx_HAL_Driver/Src/stm32g4xx_hal_pwr_ex.c **** #endif /* PWR_CR3_UCPD_STDBY */
 881:Drivers/STM32G4xx_HAL_Driver/Src/stm32g4xx_hal_pwr_ex.c **** 
ARM GAS  /tmp/cc9EFiwU.s 			page 52


 882:Drivers/STM32G4xx_HAL_Driver/Src/stm32g4xx_hal_pwr_ex.c **** /**
 883:Drivers/STM32G4xx_HAL_Driver/Src/stm32g4xx_hal_pwr_ex.c ****   * @brief Enter Low-power Run mode
 884:Drivers/STM32G4xx_HAL_Driver/Src/stm32g4xx_hal_pwr_ex.c ****   * @note  In Low-power Run mode, all I/O pins keep the same state as in Run mode.
 885:Drivers/STM32G4xx_HAL_Driver/Src/stm32g4xx_hal_pwr_ex.c ****   * @note  When Regulator is set to PWR_LOWPOWERREGULATOR_ON, the user can optionally configure the
 886:Drivers/STM32G4xx_HAL_Driver/Src/stm32g4xx_hal_pwr_ex.c ****   *        Flash in power-down monde in setting the RUN_PD bit in FLASH_ACR register.
 887:Drivers/STM32G4xx_HAL_Driver/Src/stm32g4xx_hal_pwr_ex.c ****   *        Additionally, the clock frequency must be reduced below 2 MHz.
 888:Drivers/STM32G4xx_HAL_Driver/Src/stm32g4xx_hal_pwr_ex.c ****   *        Setting RUN_PD in FLASH_ACR then appropriately reducing the clock frequency must
 889:Drivers/STM32G4xx_HAL_Driver/Src/stm32g4xx_hal_pwr_ex.c ****   *        be done before calling HAL_PWREx_EnableLowPowerRunMode() API.
 890:Drivers/STM32G4xx_HAL_Driver/Src/stm32g4xx_hal_pwr_ex.c ****   * @retval None
 891:Drivers/STM32G4xx_HAL_Driver/Src/stm32g4xx_hal_pwr_ex.c ****   */
 892:Drivers/STM32G4xx_HAL_Driver/Src/stm32g4xx_hal_pwr_ex.c **** void HAL_PWREx_EnableLowPowerRunMode(void)
 893:Drivers/STM32G4xx_HAL_Driver/Src/stm32g4xx_hal_pwr_ex.c **** {
 1932              		.loc 1 893 1 is_stmt 1 view -0
 1933              		.cfi_startproc
 1934              		@ args = 0, pretend = 0, frame = 0
 1935              		@ frame_needed = 0, uses_anonymous_args = 0
 1936              		@ link register save eliminated.
 894:Drivers/STM32G4xx_HAL_Driver/Src/stm32g4xx_hal_pwr_ex.c ****   /* Set Regulator parameter */
 895:Drivers/STM32G4xx_HAL_Driver/Src/stm32g4xx_hal_pwr_ex.c ****   SET_BIT(PWR->CR1, PWR_CR1_LPR);
 1937              		.loc 1 895 3 view .LVU439
 1938 0000 024A     		ldr	r2, .L168
 1939 0002 1368     		ldr	r3, [r2]
 1940 0004 43F48043 		orr	r3, r3, #16384
 1941 0008 1360     		str	r3, [r2]
 896:Drivers/STM32G4xx_HAL_Driver/Src/stm32g4xx_hal_pwr_ex.c **** }
 1942              		.loc 1 896 1 is_stmt 0 view .LVU440
 1943 000a 7047     		bx	lr
 1944              	.L169:
 1945              		.align	2
 1946              	.L168:
 1947 000c 00700040 		.word	1073770496
 1948              		.cfi_endproc
 1949              	.LFE352:
 1951              		.section	.text.HAL_PWREx_DisableLowPowerRunMode,"ax",%progbits
 1952              		.align	1
 1953              		.global	HAL_PWREx_DisableLowPowerRunMode
 1954              		.syntax unified
 1955              		.thumb
 1956              		.thumb_func
 1957              		.fpu fpv4-sp-d16
 1959              	HAL_PWREx_DisableLowPowerRunMode:
 1960              	.LFB353:
 897:Drivers/STM32G4xx_HAL_Driver/Src/stm32g4xx_hal_pwr_ex.c **** 
 898:Drivers/STM32G4xx_HAL_Driver/Src/stm32g4xx_hal_pwr_ex.c **** 
 899:Drivers/STM32G4xx_HAL_Driver/Src/stm32g4xx_hal_pwr_ex.c **** /**
 900:Drivers/STM32G4xx_HAL_Driver/Src/stm32g4xx_hal_pwr_ex.c ****   * @brief Exit Low-power Run mode.
 901:Drivers/STM32G4xx_HAL_Driver/Src/stm32g4xx_hal_pwr_ex.c ****   * @note  Before HAL_PWREx_DisableLowPowerRunMode() completion, the function checks that
 902:Drivers/STM32G4xx_HAL_Driver/Src/stm32g4xx_hal_pwr_ex.c ****   *        REGLPF has been properly reset (otherwise, HAL_PWREx_DisableLowPowerRunMode
 903:Drivers/STM32G4xx_HAL_Driver/Src/stm32g4xx_hal_pwr_ex.c ****   *        returns HAL_TIMEOUT status). The system clock frequency can then be
 904:Drivers/STM32G4xx_HAL_Driver/Src/stm32g4xx_hal_pwr_ex.c ****   *        increased above 2 MHz.
 905:Drivers/STM32G4xx_HAL_Driver/Src/stm32g4xx_hal_pwr_ex.c ****   * @retval HAL Status
 906:Drivers/STM32G4xx_HAL_Driver/Src/stm32g4xx_hal_pwr_ex.c ****   */
 907:Drivers/STM32G4xx_HAL_Driver/Src/stm32g4xx_hal_pwr_ex.c **** HAL_StatusTypeDef HAL_PWREx_DisableLowPowerRunMode(void)
 908:Drivers/STM32G4xx_HAL_Driver/Src/stm32g4xx_hal_pwr_ex.c **** {
 1961              		.loc 1 908 1 is_stmt 1 view -0
 1962              		.cfi_startproc
 1963              		@ args = 0, pretend = 0, frame = 0
ARM GAS  /tmp/cc9EFiwU.s 			page 53


 1964              		@ frame_needed = 0, uses_anonymous_args = 0
 1965              		@ link register save eliminated.
 909:Drivers/STM32G4xx_HAL_Driver/Src/stm32g4xx_hal_pwr_ex.c ****   uint32_t wait_loop_index;
 1966              		.loc 1 909 3 view .LVU442
 910:Drivers/STM32G4xx_HAL_Driver/Src/stm32g4xx_hal_pwr_ex.c **** 
 911:Drivers/STM32G4xx_HAL_Driver/Src/stm32g4xx_hal_pwr_ex.c ****   /* Clear LPR bit */
 912:Drivers/STM32G4xx_HAL_Driver/Src/stm32g4xx_hal_pwr_ex.c ****   CLEAR_BIT(PWR->CR1, PWR_CR1_LPR);
 1967              		.loc 1 912 3 view .LVU443
 1968 0000 114A     		ldr	r2, .L176
 1969 0002 1368     		ldr	r3, [r2]
 1970 0004 23F48043 		bic	r3, r3, #16384
 1971 0008 1360     		str	r3, [r2]
 913:Drivers/STM32G4xx_HAL_Driver/Src/stm32g4xx_hal_pwr_ex.c **** 
 914:Drivers/STM32G4xx_HAL_Driver/Src/stm32g4xx_hal_pwr_ex.c ****   /* Wait until REGLPF is reset */
 915:Drivers/STM32G4xx_HAL_Driver/Src/stm32g4xx_hal_pwr_ex.c ****   wait_loop_index = (PWR_FLAG_SETTING_DELAY_US * (SystemCoreClock / 1000000U));
 1972              		.loc 1 915 3 view .LVU444
 1973              		.loc 1 915 67 is_stmt 0 view .LVU445
 1974 000a 104B     		ldr	r3, .L176+4
 1975 000c 1B68     		ldr	r3, [r3]
 1976 000e 02F14672 		add	r2, r2, #51904512
 1977 0012 02F55B32 		add	r2, r2, #224256
 1978 0016 02F28322 		addw	r2, r2, #643
 1979 001a A2FB0323 		umull	r2, r3, r2, r3
 1980 001e 9A0C     		lsrs	r2, r3, #18
 1981              		.loc 1 915 19 view .LVU446
 1982 0020 3223     		movs	r3, #50
 1983 0022 03FB02F3 		mul	r3, r3, r2
 1984              	.LVL134:
 916:Drivers/STM32G4xx_HAL_Driver/Src/stm32g4xx_hal_pwr_ex.c ****   while ((HAL_IS_BIT_SET(PWR->SR2, PWR_SR2_REGLPF)) && (wait_loop_index != 0U))
 1985              		.loc 1 916 3 is_stmt 1 view .LVU447
 1986              	.L171:
 1987              		.loc 1 916 11 is_stmt 0 view .LVU448
 1988 0026 084A     		ldr	r2, .L176
 1989 0028 5269     		ldr	r2, [r2, #20]
 1990              		.loc 1 916 9 view .LVU449
 1991 002a 12F4007F 		tst	r2, #512
 1992 002e 02D0     		beq	.L172
 1993              		.loc 1 916 53 discriminator 1 view .LVU450
 1994 0030 0BB1     		cbz	r3, .L172
 917:Drivers/STM32G4xx_HAL_Driver/Src/stm32g4xx_hal_pwr_ex.c ****   {
 918:Drivers/STM32G4xx_HAL_Driver/Src/stm32g4xx_hal_pwr_ex.c ****     wait_loop_index--;
 1995              		.loc 1 918 5 is_stmt 1 view .LVU451
 1996              		.loc 1 918 20 is_stmt 0 view .LVU452
 1997 0032 013B     		subs	r3, r3, #1
 1998              	.LVL135:
 1999              		.loc 1 918 20 view .LVU453
 2000 0034 F7E7     		b	.L171
 2001              	.L172:
 919:Drivers/STM32G4xx_HAL_Driver/Src/stm32g4xx_hal_pwr_ex.c ****   }
 920:Drivers/STM32G4xx_HAL_Driver/Src/stm32g4xx_hal_pwr_ex.c ****   if (HAL_IS_BIT_SET(PWR->SR2, PWR_SR2_REGLPF))
 2002              		.loc 1 920 3 is_stmt 1 view .LVU454
 2003              		.loc 1 920 7 is_stmt 0 view .LVU455
 2004 0036 044B     		ldr	r3, .L176
 2005              	.LVL136:
 2006              		.loc 1 920 7 view .LVU456
 2007 0038 5B69     		ldr	r3, [r3, #20]
 2008              		.loc 1 920 6 view .LVU457
ARM GAS  /tmp/cc9EFiwU.s 			page 54


 2009 003a 13F4007F 		tst	r3, #512
 2010 003e 01D1     		bne	.L175
 921:Drivers/STM32G4xx_HAL_Driver/Src/stm32g4xx_hal_pwr_ex.c ****   {
 922:Drivers/STM32G4xx_HAL_Driver/Src/stm32g4xx_hal_pwr_ex.c ****     return HAL_TIMEOUT;
 923:Drivers/STM32G4xx_HAL_Driver/Src/stm32g4xx_hal_pwr_ex.c ****   }
 924:Drivers/STM32G4xx_HAL_Driver/Src/stm32g4xx_hal_pwr_ex.c **** 
 925:Drivers/STM32G4xx_HAL_Driver/Src/stm32g4xx_hal_pwr_ex.c ****   return HAL_OK;
 2011              		.loc 1 925 10 view .LVU458
 2012 0040 0020     		movs	r0, #0
 2013 0042 7047     		bx	lr
 2014              	.L175:
 922:Drivers/STM32G4xx_HAL_Driver/Src/stm32g4xx_hal_pwr_ex.c ****   }
 2015              		.loc 1 922 12 view .LVU459
 2016 0044 0320     		movs	r0, #3
 926:Drivers/STM32G4xx_HAL_Driver/Src/stm32g4xx_hal_pwr_ex.c **** }
 2017              		.loc 1 926 1 view .LVU460
 2018 0046 7047     		bx	lr
 2019              	.L177:
 2020              		.align	2
 2021              	.L176:
 2022 0048 00700040 		.word	1073770496
 2023 004c 00000000 		.word	SystemCoreClock
 2024              		.cfi_endproc
 2025              	.LFE353:
 2027              		.section	.text.HAL_PWREx_EnterSTOP0Mode,"ax",%progbits
 2028              		.align	1
 2029              		.global	HAL_PWREx_EnterSTOP0Mode
 2030              		.syntax unified
 2031              		.thumb
 2032              		.thumb_func
 2033              		.fpu fpv4-sp-d16
 2035              	HAL_PWREx_EnterSTOP0Mode:
 2036              	.LVL137:
 2037              	.LFB354:
 927:Drivers/STM32G4xx_HAL_Driver/Src/stm32g4xx_hal_pwr_ex.c **** 
 928:Drivers/STM32G4xx_HAL_Driver/Src/stm32g4xx_hal_pwr_ex.c **** 
 929:Drivers/STM32G4xx_HAL_Driver/Src/stm32g4xx_hal_pwr_ex.c **** /**
 930:Drivers/STM32G4xx_HAL_Driver/Src/stm32g4xx_hal_pwr_ex.c ****   * @brief Enter Stop 0 mode.
 931:Drivers/STM32G4xx_HAL_Driver/Src/stm32g4xx_hal_pwr_ex.c ****   * @note  In Stop 0 mode, main and low voltage regulators are ON.
 932:Drivers/STM32G4xx_HAL_Driver/Src/stm32g4xx_hal_pwr_ex.c ****   * @note  In Stop 0 mode, all I/O pins keep the same state as in Run mode.
 933:Drivers/STM32G4xx_HAL_Driver/Src/stm32g4xx_hal_pwr_ex.c ****   * @note  All clocks in the VCORE domain are stopped; the PLL, the HSI
 934:Drivers/STM32G4xx_HAL_Driver/Src/stm32g4xx_hal_pwr_ex.c ****   *        and the HSE oscillators are disabled. Some peripherals with the wakeup capability
 935:Drivers/STM32G4xx_HAL_Driver/Src/stm32g4xx_hal_pwr_ex.c ****   *        (I2Cx, USARTx and LPUART) can switch on the HSI to receive a frame, and switch off the H
 936:Drivers/STM32G4xx_HAL_Driver/Src/stm32g4xx_hal_pwr_ex.c ****   *        after receiving the frame if it is not a wakeup frame. In this case, the HSI clock is pr
 937:Drivers/STM32G4xx_HAL_Driver/Src/stm32g4xx_hal_pwr_ex.c ****   *        only to the peripheral requesting it.
 938:Drivers/STM32G4xx_HAL_Driver/Src/stm32g4xx_hal_pwr_ex.c ****   *        SRAM1, SRAM2 and register contents are preserved.
 939:Drivers/STM32G4xx_HAL_Driver/Src/stm32g4xx_hal_pwr_ex.c ****   *        The BOR is available.
 940:Drivers/STM32G4xx_HAL_Driver/Src/stm32g4xx_hal_pwr_ex.c ****   * @note  When exiting Stop 0 mode by issuing an interrupt or a wakeup event,
 941:Drivers/STM32G4xx_HAL_Driver/Src/stm32g4xx_hal_pwr_ex.c ****   *         the HSI RC oscillator is selected as system clock if STOPWUCK bit in RCC_CFGR register
 942:Drivers/STM32G4xx_HAL_Driver/Src/stm32g4xx_hal_pwr_ex.c ****   *         is set; the HSI oscillator is selected if STOPWUCK is cleared.
 943:Drivers/STM32G4xx_HAL_Driver/Src/stm32g4xx_hal_pwr_ex.c ****   * @note  By keeping the internal regulator ON during Stop 0 mode, the consumption
 944:Drivers/STM32G4xx_HAL_Driver/Src/stm32g4xx_hal_pwr_ex.c ****   *         is higher although the startup time is reduced.
 945:Drivers/STM32G4xx_HAL_Driver/Src/stm32g4xx_hal_pwr_ex.c ****   * @param STOPEntry  specifies if Stop mode in entered with WFI or WFE instruction.
 946:Drivers/STM32G4xx_HAL_Driver/Src/stm32g4xx_hal_pwr_ex.c ****   *          This parameter can be one of the following values:
 947:Drivers/STM32G4xx_HAL_Driver/Src/stm32g4xx_hal_pwr_ex.c ****   *            @arg @ref PWR_STOPENTRY_WFI  Enter Stop mode with WFI instruction
 948:Drivers/STM32G4xx_HAL_Driver/Src/stm32g4xx_hal_pwr_ex.c ****   *            @arg @ref PWR_STOPENTRY_WFE  Enter Stop mode with WFE instruction
 949:Drivers/STM32G4xx_HAL_Driver/Src/stm32g4xx_hal_pwr_ex.c ****   * @retval None
ARM GAS  /tmp/cc9EFiwU.s 			page 55


 950:Drivers/STM32G4xx_HAL_Driver/Src/stm32g4xx_hal_pwr_ex.c ****   */
 951:Drivers/STM32G4xx_HAL_Driver/Src/stm32g4xx_hal_pwr_ex.c **** void HAL_PWREx_EnterSTOP0Mode(uint8_t STOPEntry)
 952:Drivers/STM32G4xx_HAL_Driver/Src/stm32g4xx_hal_pwr_ex.c **** {
 2038              		.loc 1 952 1 is_stmt 1 view -0
 2039              		.cfi_startproc
 2040              		@ args = 0, pretend = 0, frame = 0
 2041              		@ frame_needed = 0, uses_anonymous_args = 0
 2042              		@ link register save eliminated.
 953:Drivers/STM32G4xx_HAL_Driver/Src/stm32g4xx_hal_pwr_ex.c ****   /* Check the parameters */
 954:Drivers/STM32G4xx_HAL_Driver/Src/stm32g4xx_hal_pwr_ex.c ****   assert_param(IS_PWR_STOP_ENTRY(STOPEntry));
 2043              		.loc 1 954 3 view .LVU462
 955:Drivers/STM32G4xx_HAL_Driver/Src/stm32g4xx_hal_pwr_ex.c **** 
 956:Drivers/STM32G4xx_HAL_Driver/Src/stm32g4xx_hal_pwr_ex.c ****   /* Stop 0 mode with Main Regulator */
 957:Drivers/STM32G4xx_HAL_Driver/Src/stm32g4xx_hal_pwr_ex.c ****   MODIFY_REG(PWR->CR1, PWR_CR1_LPMS, PWR_CR1_LPMS_STOP0);
 2044              		.loc 1 957 3 view .LVU463
 2045 0000 0B4A     		ldr	r2, .L182
 2046 0002 1368     		ldr	r3, [r2]
 2047 0004 23F00703 		bic	r3, r3, #7
 2048 0008 1360     		str	r3, [r2]
 958:Drivers/STM32G4xx_HAL_Driver/Src/stm32g4xx_hal_pwr_ex.c **** 
 959:Drivers/STM32G4xx_HAL_Driver/Src/stm32g4xx_hal_pwr_ex.c ****   /* Set SLEEPDEEP bit of Cortex System Control Register */
 960:Drivers/STM32G4xx_HAL_Driver/Src/stm32g4xx_hal_pwr_ex.c ****   SET_BIT(SCB->SCR, ((uint32_t)SCB_SCR_SLEEPDEEP_Msk));
 2049              		.loc 1 960 3 view .LVU464
 2050 000a 0A4A     		ldr	r2, .L182+4
 2051 000c 1369     		ldr	r3, [r2, #16]
 2052 000e 43F00403 		orr	r3, r3, #4
 2053 0012 1361     		str	r3, [r2, #16]
 961:Drivers/STM32G4xx_HAL_Driver/Src/stm32g4xx_hal_pwr_ex.c **** 
 962:Drivers/STM32G4xx_HAL_Driver/Src/stm32g4xx_hal_pwr_ex.c ****   /* Select Stop mode entry --------------------------------------------------*/
 963:Drivers/STM32G4xx_HAL_Driver/Src/stm32g4xx_hal_pwr_ex.c ****   if(STOPEntry == PWR_STOPENTRY_WFI)
 2054              		.loc 1 963 3 view .LVU465
 2055              		.loc 1 963 5 is_stmt 0 view .LVU466
 2056 0014 0128     		cmp	r0, #1
 2057 0016 08D0     		beq	.L181
 964:Drivers/STM32G4xx_HAL_Driver/Src/stm32g4xx_hal_pwr_ex.c ****   {
 965:Drivers/STM32G4xx_HAL_Driver/Src/stm32g4xx_hal_pwr_ex.c ****     /* Request Wait For Interrupt */
 966:Drivers/STM32G4xx_HAL_Driver/Src/stm32g4xx_hal_pwr_ex.c ****     __WFI();
 967:Drivers/STM32G4xx_HAL_Driver/Src/stm32g4xx_hal_pwr_ex.c ****   }
 968:Drivers/STM32G4xx_HAL_Driver/Src/stm32g4xx_hal_pwr_ex.c ****   else
 969:Drivers/STM32G4xx_HAL_Driver/Src/stm32g4xx_hal_pwr_ex.c ****   {
 970:Drivers/STM32G4xx_HAL_Driver/Src/stm32g4xx_hal_pwr_ex.c ****     /* Request Wait For Event */
 971:Drivers/STM32G4xx_HAL_Driver/Src/stm32g4xx_hal_pwr_ex.c ****     __SEV();
 2058              		.loc 1 971 5 is_stmt 1 view .LVU467
 2059              		.syntax unified
 2060              	@ 971 "Drivers/STM32G4xx_HAL_Driver/Src/stm32g4xx_hal_pwr_ex.c" 1
 2061 0018 40BF     		sev
 2062              	@ 0 "" 2
 972:Drivers/STM32G4xx_HAL_Driver/Src/stm32g4xx_hal_pwr_ex.c ****     __WFE();
 2063              		.loc 1 972 5 view .LVU468
 2064              	@ 972 "Drivers/STM32G4xx_HAL_Driver/Src/stm32g4xx_hal_pwr_ex.c" 1
 2065 001a 20BF     		wfe
 2066              	@ 0 "" 2
 973:Drivers/STM32G4xx_HAL_Driver/Src/stm32g4xx_hal_pwr_ex.c ****     __WFE();
 2067              		.loc 1 973 5 view .LVU469
 2068              	@ 973 "Drivers/STM32G4xx_HAL_Driver/Src/stm32g4xx_hal_pwr_ex.c" 1
 2069 001c 20BF     		wfe
 2070              	@ 0 "" 2
ARM GAS  /tmp/cc9EFiwU.s 			page 56


 2071              		.thumb
 2072              		.syntax unified
 2073              	.L180:
 974:Drivers/STM32G4xx_HAL_Driver/Src/stm32g4xx_hal_pwr_ex.c ****   }
 975:Drivers/STM32G4xx_HAL_Driver/Src/stm32g4xx_hal_pwr_ex.c **** 
 976:Drivers/STM32G4xx_HAL_Driver/Src/stm32g4xx_hal_pwr_ex.c ****   /* Reset SLEEPDEEP bit of Cortex System Control Register */
 977:Drivers/STM32G4xx_HAL_Driver/Src/stm32g4xx_hal_pwr_ex.c ****   CLEAR_BIT(SCB->SCR, ((uint32_t)SCB_SCR_SLEEPDEEP_Msk));
 2074              		.loc 1 977 3 view .LVU470
 2075 001e 054A     		ldr	r2, .L182+4
 2076 0020 1369     		ldr	r3, [r2, #16]
 2077 0022 23F00403 		bic	r3, r3, #4
 2078 0026 1361     		str	r3, [r2, #16]
 978:Drivers/STM32G4xx_HAL_Driver/Src/stm32g4xx_hal_pwr_ex.c **** }
 2079              		.loc 1 978 1 is_stmt 0 view .LVU471
 2080 0028 7047     		bx	lr
 2081              	.L181:
 966:Drivers/STM32G4xx_HAL_Driver/Src/stm32g4xx_hal_pwr_ex.c ****   }
 2082              		.loc 1 966 5 is_stmt 1 view .LVU472
 2083              		.syntax unified
 2084              	@ 966 "Drivers/STM32G4xx_HAL_Driver/Src/stm32g4xx_hal_pwr_ex.c" 1
 2085 002a 30BF     		wfi
 2086              	@ 0 "" 2
 2087              		.thumb
 2088              		.syntax unified
 2089 002c F7E7     		b	.L180
 2090              	.L183:
 2091 002e 00BF     		.align	2
 2092              	.L182:
 2093 0030 00700040 		.word	1073770496
 2094 0034 00ED00E0 		.word	-536810240
 2095              		.cfi_endproc
 2096              	.LFE354:
 2098              		.section	.text.HAL_PWREx_EnterSTOP1Mode,"ax",%progbits
 2099              		.align	1
 2100              		.global	HAL_PWREx_EnterSTOP1Mode
 2101              		.syntax unified
 2102              		.thumb
 2103              		.thumb_func
 2104              		.fpu fpv4-sp-d16
 2106              	HAL_PWREx_EnterSTOP1Mode:
 2107              	.LVL138:
 2108              	.LFB355:
 979:Drivers/STM32G4xx_HAL_Driver/Src/stm32g4xx_hal_pwr_ex.c **** 
 980:Drivers/STM32G4xx_HAL_Driver/Src/stm32g4xx_hal_pwr_ex.c **** 
 981:Drivers/STM32G4xx_HAL_Driver/Src/stm32g4xx_hal_pwr_ex.c **** /**
 982:Drivers/STM32G4xx_HAL_Driver/Src/stm32g4xx_hal_pwr_ex.c ****   * @brief Enter Stop 1 mode.
 983:Drivers/STM32G4xx_HAL_Driver/Src/stm32g4xx_hal_pwr_ex.c ****   * @note  In Stop 1 mode, only low power voltage regulator is ON.
 984:Drivers/STM32G4xx_HAL_Driver/Src/stm32g4xx_hal_pwr_ex.c ****   * @note  In Stop 1 mode, all I/O pins keep the same state as in Run mode.
 985:Drivers/STM32G4xx_HAL_Driver/Src/stm32g4xx_hal_pwr_ex.c ****   * @note  All clocks in the VCORE domain are stopped; the PLL, the HSI
 986:Drivers/STM32G4xx_HAL_Driver/Src/stm32g4xx_hal_pwr_ex.c ****   *        and the HSE oscillators are disabled. Some peripherals with the wakeup capability
 987:Drivers/STM32G4xx_HAL_Driver/Src/stm32g4xx_hal_pwr_ex.c ****   *        (I2Cx, USARTx and LPUART) can switch on the HSI to receive a frame, and switch off the H
 988:Drivers/STM32G4xx_HAL_Driver/Src/stm32g4xx_hal_pwr_ex.c ****   *        after receiving the frame if it is not a wakeup frame. In this case, the HSI clock is pr
 989:Drivers/STM32G4xx_HAL_Driver/Src/stm32g4xx_hal_pwr_ex.c ****   *        only to the peripheral requesting it.
 990:Drivers/STM32G4xx_HAL_Driver/Src/stm32g4xx_hal_pwr_ex.c ****   *        SRAM1, SRAM2 and register contents are preserved.
 991:Drivers/STM32G4xx_HAL_Driver/Src/stm32g4xx_hal_pwr_ex.c ****   *        The BOR is available.
 992:Drivers/STM32G4xx_HAL_Driver/Src/stm32g4xx_hal_pwr_ex.c ****   * @note  When exiting Stop 1 mode by issuing an interrupt or a wakeup event,
 993:Drivers/STM32G4xx_HAL_Driver/Src/stm32g4xx_hal_pwr_ex.c ****   *         the HSI RC oscillator is selected as system clock if STOPWUCK bit in RCC_CFGR register
ARM GAS  /tmp/cc9EFiwU.s 			page 57


 994:Drivers/STM32G4xx_HAL_Driver/Src/stm32g4xx_hal_pwr_ex.c ****   *         is set.
 995:Drivers/STM32G4xx_HAL_Driver/Src/stm32g4xx_hal_pwr_ex.c ****   * @note  Due to low power mode, an additional startup delay is incurred when waking up from Stop 
 996:Drivers/STM32G4xx_HAL_Driver/Src/stm32g4xx_hal_pwr_ex.c ****   * @param STOPEntry  specifies if Stop mode in entered with WFI or WFE instruction.
 997:Drivers/STM32G4xx_HAL_Driver/Src/stm32g4xx_hal_pwr_ex.c ****   *          This parameter can be one of the following values:
 998:Drivers/STM32G4xx_HAL_Driver/Src/stm32g4xx_hal_pwr_ex.c ****   *            @arg @ref PWR_STOPENTRY_WFI  Enter Stop mode with WFI instruction
 999:Drivers/STM32G4xx_HAL_Driver/Src/stm32g4xx_hal_pwr_ex.c ****   *            @arg @ref PWR_STOPENTRY_WFE  Enter Stop mode with WFE instruction
1000:Drivers/STM32G4xx_HAL_Driver/Src/stm32g4xx_hal_pwr_ex.c ****   * @retval None
1001:Drivers/STM32G4xx_HAL_Driver/Src/stm32g4xx_hal_pwr_ex.c ****   */
1002:Drivers/STM32G4xx_HAL_Driver/Src/stm32g4xx_hal_pwr_ex.c **** void HAL_PWREx_EnterSTOP1Mode(uint8_t STOPEntry)
1003:Drivers/STM32G4xx_HAL_Driver/Src/stm32g4xx_hal_pwr_ex.c **** {
 2109              		.loc 1 1003 1 view -0
 2110              		.cfi_startproc
 2111              		@ args = 0, pretend = 0, frame = 0
 2112              		@ frame_needed = 0, uses_anonymous_args = 0
 2113              		@ link register save eliminated.
1004:Drivers/STM32G4xx_HAL_Driver/Src/stm32g4xx_hal_pwr_ex.c ****   /* Check the parameters */
1005:Drivers/STM32G4xx_HAL_Driver/Src/stm32g4xx_hal_pwr_ex.c ****   assert_param(IS_PWR_STOP_ENTRY(STOPEntry));
 2114              		.loc 1 1005 3 view .LVU474
1006:Drivers/STM32G4xx_HAL_Driver/Src/stm32g4xx_hal_pwr_ex.c **** 
1007:Drivers/STM32G4xx_HAL_Driver/Src/stm32g4xx_hal_pwr_ex.c ****   /* Stop 1 mode with Low-Power Regulator */
1008:Drivers/STM32G4xx_HAL_Driver/Src/stm32g4xx_hal_pwr_ex.c ****   MODIFY_REG(PWR->CR1, PWR_CR1_LPMS, PWR_CR1_LPMS_STOP1);
 2115              		.loc 1 1008 3 view .LVU475
 2116 0000 0C4A     		ldr	r2, .L188
 2117 0002 1368     		ldr	r3, [r2]
 2118 0004 23F00703 		bic	r3, r3, #7
 2119 0008 43F00103 		orr	r3, r3, #1
 2120 000c 1360     		str	r3, [r2]
1009:Drivers/STM32G4xx_HAL_Driver/Src/stm32g4xx_hal_pwr_ex.c **** 
1010:Drivers/STM32G4xx_HAL_Driver/Src/stm32g4xx_hal_pwr_ex.c ****   /* Set SLEEPDEEP bit of Cortex System Control Register */
1011:Drivers/STM32G4xx_HAL_Driver/Src/stm32g4xx_hal_pwr_ex.c ****   SET_BIT(SCB->SCR, ((uint32_t)SCB_SCR_SLEEPDEEP_Msk));
 2121              		.loc 1 1011 3 view .LVU476
 2122 000e 0A4A     		ldr	r2, .L188+4
 2123 0010 1369     		ldr	r3, [r2, #16]
 2124 0012 43F00403 		orr	r3, r3, #4
 2125 0016 1361     		str	r3, [r2, #16]
1012:Drivers/STM32G4xx_HAL_Driver/Src/stm32g4xx_hal_pwr_ex.c **** 
1013:Drivers/STM32G4xx_HAL_Driver/Src/stm32g4xx_hal_pwr_ex.c ****   /* Select Stop mode entry --------------------------------------------------*/
1014:Drivers/STM32G4xx_HAL_Driver/Src/stm32g4xx_hal_pwr_ex.c ****   if(STOPEntry == PWR_STOPENTRY_WFI)
 2126              		.loc 1 1014 3 view .LVU477
 2127              		.loc 1 1014 5 is_stmt 0 view .LVU478
 2128 0018 0128     		cmp	r0, #1
 2129 001a 08D0     		beq	.L187
1015:Drivers/STM32G4xx_HAL_Driver/Src/stm32g4xx_hal_pwr_ex.c ****   {
1016:Drivers/STM32G4xx_HAL_Driver/Src/stm32g4xx_hal_pwr_ex.c ****     /* Request Wait For Interrupt */
1017:Drivers/STM32G4xx_HAL_Driver/Src/stm32g4xx_hal_pwr_ex.c ****     __WFI();
1018:Drivers/STM32G4xx_HAL_Driver/Src/stm32g4xx_hal_pwr_ex.c ****   }
1019:Drivers/STM32G4xx_HAL_Driver/Src/stm32g4xx_hal_pwr_ex.c ****   else
1020:Drivers/STM32G4xx_HAL_Driver/Src/stm32g4xx_hal_pwr_ex.c ****   {
1021:Drivers/STM32G4xx_HAL_Driver/Src/stm32g4xx_hal_pwr_ex.c ****     /* Request Wait For Event */
1022:Drivers/STM32G4xx_HAL_Driver/Src/stm32g4xx_hal_pwr_ex.c ****     __SEV();
 2130              		.loc 1 1022 5 is_stmt 1 view .LVU479
 2131              		.syntax unified
 2132              	@ 1022 "Drivers/STM32G4xx_HAL_Driver/Src/stm32g4xx_hal_pwr_ex.c" 1
 2133 001c 40BF     		sev
 2134              	@ 0 "" 2
1023:Drivers/STM32G4xx_HAL_Driver/Src/stm32g4xx_hal_pwr_ex.c ****     __WFE();
 2135              		.loc 1 1023 5 view .LVU480
ARM GAS  /tmp/cc9EFiwU.s 			page 58


 2136              	@ 1023 "Drivers/STM32G4xx_HAL_Driver/Src/stm32g4xx_hal_pwr_ex.c" 1
 2137 001e 20BF     		wfe
 2138              	@ 0 "" 2
1024:Drivers/STM32G4xx_HAL_Driver/Src/stm32g4xx_hal_pwr_ex.c ****     __WFE();
 2139              		.loc 1 1024 5 view .LVU481
 2140              	@ 1024 "Drivers/STM32G4xx_HAL_Driver/Src/stm32g4xx_hal_pwr_ex.c" 1
 2141 0020 20BF     		wfe
 2142              	@ 0 "" 2
 2143              		.thumb
 2144              		.syntax unified
 2145              	.L186:
1025:Drivers/STM32G4xx_HAL_Driver/Src/stm32g4xx_hal_pwr_ex.c ****   }
1026:Drivers/STM32G4xx_HAL_Driver/Src/stm32g4xx_hal_pwr_ex.c **** 
1027:Drivers/STM32G4xx_HAL_Driver/Src/stm32g4xx_hal_pwr_ex.c ****   /* Reset SLEEPDEEP bit of Cortex System Control Register */
1028:Drivers/STM32G4xx_HAL_Driver/Src/stm32g4xx_hal_pwr_ex.c ****   CLEAR_BIT(SCB->SCR, ((uint32_t)SCB_SCR_SLEEPDEEP_Msk));
 2146              		.loc 1 1028 3 view .LVU482
 2147 0022 054A     		ldr	r2, .L188+4
 2148 0024 1369     		ldr	r3, [r2, #16]
 2149 0026 23F00403 		bic	r3, r3, #4
 2150 002a 1361     		str	r3, [r2, #16]
1029:Drivers/STM32G4xx_HAL_Driver/Src/stm32g4xx_hal_pwr_ex.c **** }
 2151              		.loc 1 1029 1 is_stmt 0 view .LVU483
 2152 002c 7047     		bx	lr
 2153              	.L187:
1017:Drivers/STM32G4xx_HAL_Driver/Src/stm32g4xx_hal_pwr_ex.c ****   }
 2154              		.loc 1 1017 5 is_stmt 1 view .LVU484
 2155              		.syntax unified
 2156              	@ 1017 "Drivers/STM32G4xx_HAL_Driver/Src/stm32g4xx_hal_pwr_ex.c" 1
 2157 002e 30BF     		wfi
 2158              	@ 0 "" 2
 2159              		.thumb
 2160              		.syntax unified
 2161 0030 F7E7     		b	.L186
 2162              	.L189:
 2163 0032 00BF     		.align	2
 2164              	.L188:
 2165 0034 00700040 		.word	1073770496
 2166 0038 00ED00E0 		.word	-536810240
 2167              		.cfi_endproc
 2168              	.LFE355:
 2170              		.section	.text.HAL_PWREx_EnterSHUTDOWNMode,"ax",%progbits
 2171              		.align	1
 2172              		.global	HAL_PWREx_EnterSHUTDOWNMode
 2173              		.syntax unified
 2174              		.thumb
 2175              		.thumb_func
 2176              		.fpu fpv4-sp-d16
 2178              	HAL_PWREx_EnterSHUTDOWNMode:
 2179              	.LFB356:
1030:Drivers/STM32G4xx_HAL_Driver/Src/stm32g4xx_hal_pwr_ex.c **** 
1031:Drivers/STM32G4xx_HAL_Driver/Src/stm32g4xx_hal_pwr_ex.c **** 
1032:Drivers/STM32G4xx_HAL_Driver/Src/stm32g4xx_hal_pwr_ex.c **** 
1033:Drivers/STM32G4xx_HAL_Driver/Src/stm32g4xx_hal_pwr_ex.c **** 
1034:Drivers/STM32G4xx_HAL_Driver/Src/stm32g4xx_hal_pwr_ex.c **** /**
1035:Drivers/STM32G4xx_HAL_Driver/Src/stm32g4xx_hal_pwr_ex.c ****   * @brief Enter Shutdown mode.
1036:Drivers/STM32G4xx_HAL_Driver/Src/stm32g4xx_hal_pwr_ex.c ****   * @note  In Shutdown mode, the PLL, the HSI, the LSI and the HSE oscillators are switched
1037:Drivers/STM32G4xx_HAL_Driver/Src/stm32g4xx_hal_pwr_ex.c ****   *        off. The voltage regulator is disabled and Vcore domain is powered off.
ARM GAS  /tmp/cc9EFiwU.s 			page 59


1038:Drivers/STM32G4xx_HAL_Driver/Src/stm32g4xx_hal_pwr_ex.c ****   *        SRAM1, SRAM2 and registers contents are lost except for registers in the Backup domain.
1039:Drivers/STM32G4xx_HAL_Driver/Src/stm32g4xx_hal_pwr_ex.c ****   *        The BOR is not available.
1040:Drivers/STM32G4xx_HAL_Driver/Src/stm32g4xx_hal_pwr_ex.c ****   * @note  The I/Os can be configured either with a pull-up or pull-down or can be kept in analog s
1041:Drivers/STM32G4xx_HAL_Driver/Src/stm32g4xx_hal_pwr_ex.c ****   * @retval None
1042:Drivers/STM32G4xx_HAL_Driver/Src/stm32g4xx_hal_pwr_ex.c ****   */
1043:Drivers/STM32G4xx_HAL_Driver/Src/stm32g4xx_hal_pwr_ex.c **** void HAL_PWREx_EnterSHUTDOWNMode(void)
1044:Drivers/STM32G4xx_HAL_Driver/Src/stm32g4xx_hal_pwr_ex.c **** {
 2180              		.loc 1 1044 1 view -0
 2181              		.cfi_startproc
 2182              		@ args = 0, pretend = 0, frame = 0
 2183              		@ frame_needed = 0, uses_anonymous_args = 0
 2184              		@ link register save eliminated.
1045:Drivers/STM32G4xx_HAL_Driver/Src/stm32g4xx_hal_pwr_ex.c **** 
1046:Drivers/STM32G4xx_HAL_Driver/Src/stm32g4xx_hal_pwr_ex.c ****   /* Set Shutdown mode */
1047:Drivers/STM32G4xx_HAL_Driver/Src/stm32g4xx_hal_pwr_ex.c ****   MODIFY_REG(PWR->CR1, PWR_CR1_LPMS, PWR_CR1_LPMS_SHUTDOWN);
 2185              		.loc 1 1047 3 view .LVU486
 2186 0000 064A     		ldr	r2, .L191
 2187 0002 1368     		ldr	r3, [r2]
 2188 0004 23F00703 		bic	r3, r3, #7
 2189 0008 43F00403 		orr	r3, r3, #4
 2190 000c 1360     		str	r3, [r2]
1048:Drivers/STM32G4xx_HAL_Driver/Src/stm32g4xx_hal_pwr_ex.c **** 
1049:Drivers/STM32G4xx_HAL_Driver/Src/stm32g4xx_hal_pwr_ex.c ****   /* Set SLEEPDEEP bit of Cortex System Control Register */
1050:Drivers/STM32G4xx_HAL_Driver/Src/stm32g4xx_hal_pwr_ex.c ****   SET_BIT(SCB->SCR, ((uint32_t)SCB_SCR_SLEEPDEEP_Msk));
 2191              		.loc 1 1050 3 view .LVU487
 2192 000e 044A     		ldr	r2, .L191+4
 2193 0010 1369     		ldr	r3, [r2, #16]
 2194 0012 43F00403 		orr	r3, r3, #4
 2195 0016 1361     		str	r3, [r2, #16]
1051:Drivers/STM32G4xx_HAL_Driver/Src/stm32g4xx_hal_pwr_ex.c **** 
1052:Drivers/STM32G4xx_HAL_Driver/Src/stm32g4xx_hal_pwr_ex.c **** /* This option is used to ensure that store operations are completed */
1053:Drivers/STM32G4xx_HAL_Driver/Src/stm32g4xx_hal_pwr_ex.c **** #if defined ( __CC_ARM)
1054:Drivers/STM32G4xx_HAL_Driver/Src/stm32g4xx_hal_pwr_ex.c ****   __force_stores();
1055:Drivers/STM32G4xx_HAL_Driver/Src/stm32g4xx_hal_pwr_ex.c **** #endif
1056:Drivers/STM32G4xx_HAL_Driver/Src/stm32g4xx_hal_pwr_ex.c ****   /* Request Wait For Interrupt */
1057:Drivers/STM32G4xx_HAL_Driver/Src/stm32g4xx_hal_pwr_ex.c ****   __WFI();
 2196              		.loc 1 1057 3 view .LVU488
 2197              		.syntax unified
 2198              	@ 1057 "Drivers/STM32G4xx_HAL_Driver/Src/stm32g4xx_hal_pwr_ex.c" 1
 2199 0018 30BF     		wfi
 2200              	@ 0 "" 2
1058:Drivers/STM32G4xx_HAL_Driver/Src/stm32g4xx_hal_pwr_ex.c **** }
 2201              		.loc 1 1058 1 is_stmt 0 view .LVU489
 2202              		.thumb
 2203              		.syntax unified
 2204 001a 7047     		bx	lr
 2205              	.L192:
 2206              		.align	2
 2207              	.L191:
 2208 001c 00700040 		.word	1073770496
 2209 0020 00ED00E0 		.word	-536810240
 2210              		.cfi_endproc
 2211              	.LFE356:
 2213              		.section	.text.HAL_PWREx_PVM1Callback,"ax",%progbits
 2214              		.align	1
 2215              		.weak	HAL_PWREx_PVM1Callback
 2216              		.syntax unified
ARM GAS  /tmp/cc9EFiwU.s 			page 60


 2217              		.thumb
 2218              		.thumb_func
 2219              		.fpu fpv4-sp-d16
 2221              	HAL_PWREx_PVM1Callback:
 2222              	.LFB358:
1059:Drivers/STM32G4xx_HAL_Driver/Src/stm32g4xx_hal_pwr_ex.c **** 
1060:Drivers/STM32G4xx_HAL_Driver/Src/stm32g4xx_hal_pwr_ex.c **** 
1061:Drivers/STM32G4xx_HAL_Driver/Src/stm32g4xx_hal_pwr_ex.c **** 
1062:Drivers/STM32G4xx_HAL_Driver/Src/stm32g4xx_hal_pwr_ex.c **** 
1063:Drivers/STM32G4xx_HAL_Driver/Src/stm32g4xx_hal_pwr_ex.c **** /**
1064:Drivers/STM32G4xx_HAL_Driver/Src/stm32g4xx_hal_pwr_ex.c ****   * @brief This function handles the PWR PVD/PVMx interrupt request.
1065:Drivers/STM32G4xx_HAL_Driver/Src/stm32g4xx_hal_pwr_ex.c ****   * @note This API should be called under the PVD_PVM_IRQHandler().
1066:Drivers/STM32G4xx_HAL_Driver/Src/stm32g4xx_hal_pwr_ex.c ****   * @retval None
1067:Drivers/STM32G4xx_HAL_Driver/Src/stm32g4xx_hal_pwr_ex.c ****   */
1068:Drivers/STM32G4xx_HAL_Driver/Src/stm32g4xx_hal_pwr_ex.c **** void HAL_PWREx_PVD_PVM_IRQHandler(void)
1069:Drivers/STM32G4xx_HAL_Driver/Src/stm32g4xx_hal_pwr_ex.c **** {
1070:Drivers/STM32G4xx_HAL_Driver/Src/stm32g4xx_hal_pwr_ex.c ****   /* Check PWR exti flag */
1071:Drivers/STM32G4xx_HAL_Driver/Src/stm32g4xx_hal_pwr_ex.c ****   if(__HAL_PWR_PVD_EXTI_GET_FLAG() != 0U)
1072:Drivers/STM32G4xx_HAL_Driver/Src/stm32g4xx_hal_pwr_ex.c ****   {
1073:Drivers/STM32G4xx_HAL_Driver/Src/stm32g4xx_hal_pwr_ex.c ****     /* PWR PVD interrupt user callback */
1074:Drivers/STM32G4xx_HAL_Driver/Src/stm32g4xx_hal_pwr_ex.c ****     HAL_PWR_PVDCallback();
1075:Drivers/STM32G4xx_HAL_Driver/Src/stm32g4xx_hal_pwr_ex.c **** 
1076:Drivers/STM32G4xx_HAL_Driver/Src/stm32g4xx_hal_pwr_ex.c ****     /* Clear PVD exti pending bit */
1077:Drivers/STM32G4xx_HAL_Driver/Src/stm32g4xx_hal_pwr_ex.c ****     __HAL_PWR_PVD_EXTI_CLEAR_FLAG();
1078:Drivers/STM32G4xx_HAL_Driver/Src/stm32g4xx_hal_pwr_ex.c ****   }
1079:Drivers/STM32G4xx_HAL_Driver/Src/stm32g4xx_hal_pwr_ex.c ****   /* Next, successively check PVMx exti flags */
1080:Drivers/STM32G4xx_HAL_Driver/Src/stm32g4xx_hal_pwr_ex.c **** #if defined(PWR_CR2_PVME1)
1081:Drivers/STM32G4xx_HAL_Driver/Src/stm32g4xx_hal_pwr_ex.c ****   if(__HAL_PWR_PVM1_EXTI_GET_FLAG() != 0U)
1082:Drivers/STM32G4xx_HAL_Driver/Src/stm32g4xx_hal_pwr_ex.c ****   {
1083:Drivers/STM32G4xx_HAL_Driver/Src/stm32g4xx_hal_pwr_ex.c ****     /* PWR PVM1 interrupt user callback */
1084:Drivers/STM32G4xx_HAL_Driver/Src/stm32g4xx_hal_pwr_ex.c ****     HAL_PWREx_PVM1Callback();
1085:Drivers/STM32G4xx_HAL_Driver/Src/stm32g4xx_hal_pwr_ex.c **** 
1086:Drivers/STM32G4xx_HAL_Driver/Src/stm32g4xx_hal_pwr_ex.c ****     /* Clear PVM1 exti pending bit */
1087:Drivers/STM32G4xx_HAL_Driver/Src/stm32g4xx_hal_pwr_ex.c ****     __HAL_PWR_PVM1_EXTI_CLEAR_FLAG();
1088:Drivers/STM32G4xx_HAL_Driver/Src/stm32g4xx_hal_pwr_ex.c ****   }
1089:Drivers/STM32G4xx_HAL_Driver/Src/stm32g4xx_hal_pwr_ex.c **** #endif /* PWR_CR2_PVME1 */
1090:Drivers/STM32G4xx_HAL_Driver/Src/stm32g4xx_hal_pwr_ex.c **** #if defined(PWR_CR2_PVME2)
1091:Drivers/STM32G4xx_HAL_Driver/Src/stm32g4xx_hal_pwr_ex.c ****   if(__HAL_PWR_PVM2_EXTI_GET_FLAG() != 0U)
1092:Drivers/STM32G4xx_HAL_Driver/Src/stm32g4xx_hal_pwr_ex.c ****   {
1093:Drivers/STM32G4xx_HAL_Driver/Src/stm32g4xx_hal_pwr_ex.c ****     /* PWR PVM2 interrupt user callback */
1094:Drivers/STM32G4xx_HAL_Driver/Src/stm32g4xx_hal_pwr_ex.c ****     HAL_PWREx_PVM2Callback();
1095:Drivers/STM32G4xx_HAL_Driver/Src/stm32g4xx_hal_pwr_ex.c **** 
1096:Drivers/STM32G4xx_HAL_Driver/Src/stm32g4xx_hal_pwr_ex.c ****     /* Clear PVM2 exti pending bit */
1097:Drivers/STM32G4xx_HAL_Driver/Src/stm32g4xx_hal_pwr_ex.c ****     __HAL_PWR_PVM2_EXTI_CLEAR_FLAG();
1098:Drivers/STM32G4xx_HAL_Driver/Src/stm32g4xx_hal_pwr_ex.c ****   }
1099:Drivers/STM32G4xx_HAL_Driver/Src/stm32g4xx_hal_pwr_ex.c **** #endif /* PWR_CR2_PVME2 */
1100:Drivers/STM32G4xx_HAL_Driver/Src/stm32g4xx_hal_pwr_ex.c ****   if(__HAL_PWR_PVM3_EXTI_GET_FLAG() != 0U)
1101:Drivers/STM32G4xx_HAL_Driver/Src/stm32g4xx_hal_pwr_ex.c ****   {
1102:Drivers/STM32G4xx_HAL_Driver/Src/stm32g4xx_hal_pwr_ex.c ****     /* PWR PVM3 interrupt user callback */
1103:Drivers/STM32G4xx_HAL_Driver/Src/stm32g4xx_hal_pwr_ex.c ****     HAL_PWREx_PVM3Callback();
1104:Drivers/STM32G4xx_HAL_Driver/Src/stm32g4xx_hal_pwr_ex.c **** 
1105:Drivers/STM32G4xx_HAL_Driver/Src/stm32g4xx_hal_pwr_ex.c ****     /* Clear PVM3 exti pending bit */
1106:Drivers/STM32G4xx_HAL_Driver/Src/stm32g4xx_hal_pwr_ex.c ****     __HAL_PWR_PVM3_EXTI_CLEAR_FLAG();
1107:Drivers/STM32G4xx_HAL_Driver/Src/stm32g4xx_hal_pwr_ex.c ****   }
1108:Drivers/STM32G4xx_HAL_Driver/Src/stm32g4xx_hal_pwr_ex.c ****   if(__HAL_PWR_PVM4_EXTI_GET_FLAG() != 0U)
1109:Drivers/STM32G4xx_HAL_Driver/Src/stm32g4xx_hal_pwr_ex.c ****   {
1110:Drivers/STM32G4xx_HAL_Driver/Src/stm32g4xx_hal_pwr_ex.c ****     /* PWR PVM4 interrupt user callback */
ARM GAS  /tmp/cc9EFiwU.s 			page 61


1111:Drivers/STM32G4xx_HAL_Driver/Src/stm32g4xx_hal_pwr_ex.c ****     HAL_PWREx_PVM4Callback();
1112:Drivers/STM32G4xx_HAL_Driver/Src/stm32g4xx_hal_pwr_ex.c **** 
1113:Drivers/STM32G4xx_HAL_Driver/Src/stm32g4xx_hal_pwr_ex.c ****     /* Clear PVM4 exti pending bit */
1114:Drivers/STM32G4xx_HAL_Driver/Src/stm32g4xx_hal_pwr_ex.c ****     __HAL_PWR_PVM4_EXTI_CLEAR_FLAG();
1115:Drivers/STM32G4xx_HAL_Driver/Src/stm32g4xx_hal_pwr_ex.c ****   }
1116:Drivers/STM32G4xx_HAL_Driver/Src/stm32g4xx_hal_pwr_ex.c **** }
1117:Drivers/STM32G4xx_HAL_Driver/Src/stm32g4xx_hal_pwr_ex.c **** 
1118:Drivers/STM32G4xx_HAL_Driver/Src/stm32g4xx_hal_pwr_ex.c **** 
1119:Drivers/STM32G4xx_HAL_Driver/Src/stm32g4xx_hal_pwr_ex.c **** #if defined(PWR_CR2_PVME1)
1120:Drivers/STM32G4xx_HAL_Driver/Src/stm32g4xx_hal_pwr_ex.c **** /**
1121:Drivers/STM32G4xx_HAL_Driver/Src/stm32g4xx_hal_pwr_ex.c ****   * @brief PWR PVM1 interrupt callback
1122:Drivers/STM32G4xx_HAL_Driver/Src/stm32g4xx_hal_pwr_ex.c ****   * @retval None
1123:Drivers/STM32G4xx_HAL_Driver/Src/stm32g4xx_hal_pwr_ex.c ****   */
1124:Drivers/STM32G4xx_HAL_Driver/Src/stm32g4xx_hal_pwr_ex.c **** __weak void HAL_PWREx_PVM1Callback(void)
1125:Drivers/STM32G4xx_HAL_Driver/Src/stm32g4xx_hal_pwr_ex.c **** {
 2223              		.loc 1 1125 1 is_stmt 1 view -0
 2224              		.cfi_startproc
 2225              		@ args = 0, pretend = 0, frame = 0
 2226              		@ frame_needed = 0, uses_anonymous_args = 0
 2227              		@ link register save eliminated.
1126:Drivers/STM32G4xx_HAL_Driver/Src/stm32g4xx_hal_pwr_ex.c ****   /* NOTE : This function should not be modified; when the callback is needed,
1127:Drivers/STM32G4xx_HAL_Driver/Src/stm32g4xx_hal_pwr_ex.c ****             HAL_PWREx_PVM1Callback() API can be implemented in the user file
1128:Drivers/STM32G4xx_HAL_Driver/Src/stm32g4xx_hal_pwr_ex.c ****    */
1129:Drivers/STM32G4xx_HAL_Driver/Src/stm32g4xx_hal_pwr_ex.c **** }
 2228              		.loc 1 1129 1 view .LVU491
 2229 0000 7047     		bx	lr
 2230              		.cfi_endproc
 2231              	.LFE358:
 2233              		.section	.text.HAL_PWREx_PVM2Callback,"ax",%progbits
 2234              		.align	1
 2235              		.weak	HAL_PWREx_PVM2Callback
 2236              		.syntax unified
 2237              		.thumb
 2238              		.thumb_func
 2239              		.fpu fpv4-sp-d16
 2241              	HAL_PWREx_PVM2Callback:
 2242              	.LFB359:
1130:Drivers/STM32G4xx_HAL_Driver/Src/stm32g4xx_hal_pwr_ex.c **** #endif /* PWR_CR2_PVME1 */
1131:Drivers/STM32G4xx_HAL_Driver/Src/stm32g4xx_hal_pwr_ex.c **** 
1132:Drivers/STM32G4xx_HAL_Driver/Src/stm32g4xx_hal_pwr_ex.c **** #if defined(PWR_CR2_PVME2)
1133:Drivers/STM32G4xx_HAL_Driver/Src/stm32g4xx_hal_pwr_ex.c **** /**
1134:Drivers/STM32G4xx_HAL_Driver/Src/stm32g4xx_hal_pwr_ex.c ****   * @brief PWR PVM2 interrupt callback
1135:Drivers/STM32G4xx_HAL_Driver/Src/stm32g4xx_hal_pwr_ex.c ****   * @retval None
1136:Drivers/STM32G4xx_HAL_Driver/Src/stm32g4xx_hal_pwr_ex.c ****   */
1137:Drivers/STM32G4xx_HAL_Driver/Src/stm32g4xx_hal_pwr_ex.c **** __weak void HAL_PWREx_PVM2Callback(void)
1138:Drivers/STM32G4xx_HAL_Driver/Src/stm32g4xx_hal_pwr_ex.c **** {
 2243              		.loc 1 1138 1 view -0
 2244              		.cfi_startproc
 2245              		@ args = 0, pretend = 0, frame = 0
 2246              		@ frame_needed = 0, uses_anonymous_args = 0
 2247              		@ link register save eliminated.
1139:Drivers/STM32G4xx_HAL_Driver/Src/stm32g4xx_hal_pwr_ex.c ****   /* NOTE : This function should not be modified; when the callback is needed,
1140:Drivers/STM32G4xx_HAL_Driver/Src/stm32g4xx_hal_pwr_ex.c ****             HAL_PWREx_PVM2Callback() API can be implemented in the user file
1141:Drivers/STM32G4xx_HAL_Driver/Src/stm32g4xx_hal_pwr_ex.c ****    */
1142:Drivers/STM32G4xx_HAL_Driver/Src/stm32g4xx_hal_pwr_ex.c **** }
 2248              		.loc 1 1142 1 view .LVU493
 2249 0000 7047     		bx	lr
ARM GAS  /tmp/cc9EFiwU.s 			page 62


 2250              		.cfi_endproc
 2251              	.LFE359:
 2253              		.section	.text.HAL_PWREx_PVM3Callback,"ax",%progbits
 2254              		.align	1
 2255              		.weak	HAL_PWREx_PVM3Callback
 2256              		.syntax unified
 2257              		.thumb
 2258              		.thumb_func
 2259              		.fpu fpv4-sp-d16
 2261              	HAL_PWREx_PVM3Callback:
 2262              	.LFB360:
1143:Drivers/STM32G4xx_HAL_Driver/Src/stm32g4xx_hal_pwr_ex.c **** #endif /* PWR_CR2_PVME2 */
1144:Drivers/STM32G4xx_HAL_Driver/Src/stm32g4xx_hal_pwr_ex.c **** 
1145:Drivers/STM32G4xx_HAL_Driver/Src/stm32g4xx_hal_pwr_ex.c **** /**
1146:Drivers/STM32G4xx_HAL_Driver/Src/stm32g4xx_hal_pwr_ex.c ****   * @brief PWR PVM3 interrupt callback
1147:Drivers/STM32G4xx_HAL_Driver/Src/stm32g4xx_hal_pwr_ex.c ****   * @retval None
1148:Drivers/STM32G4xx_HAL_Driver/Src/stm32g4xx_hal_pwr_ex.c ****   */
1149:Drivers/STM32G4xx_HAL_Driver/Src/stm32g4xx_hal_pwr_ex.c **** __weak void HAL_PWREx_PVM3Callback(void)
1150:Drivers/STM32G4xx_HAL_Driver/Src/stm32g4xx_hal_pwr_ex.c **** {
 2263              		.loc 1 1150 1 view -0
 2264              		.cfi_startproc
 2265              		@ args = 0, pretend = 0, frame = 0
 2266              		@ frame_needed = 0, uses_anonymous_args = 0
 2267              		@ link register save eliminated.
1151:Drivers/STM32G4xx_HAL_Driver/Src/stm32g4xx_hal_pwr_ex.c ****   /* NOTE : This function should not be modified; when the callback is needed,
1152:Drivers/STM32G4xx_HAL_Driver/Src/stm32g4xx_hal_pwr_ex.c ****             HAL_PWREx_PVM3Callback() API can be implemented in the user file
1153:Drivers/STM32G4xx_HAL_Driver/Src/stm32g4xx_hal_pwr_ex.c ****    */
1154:Drivers/STM32G4xx_HAL_Driver/Src/stm32g4xx_hal_pwr_ex.c **** }
 2268              		.loc 1 1154 1 view .LVU495
 2269 0000 7047     		bx	lr
 2270              		.cfi_endproc
 2271              	.LFE360:
 2273              		.section	.text.HAL_PWREx_PVM4Callback,"ax",%progbits
 2274              		.align	1
 2275              		.weak	HAL_PWREx_PVM4Callback
 2276              		.syntax unified
 2277              		.thumb
 2278              		.thumb_func
 2279              		.fpu fpv4-sp-d16
 2281              	HAL_PWREx_PVM4Callback:
 2282              	.LFB361:
1155:Drivers/STM32G4xx_HAL_Driver/Src/stm32g4xx_hal_pwr_ex.c **** 
1156:Drivers/STM32G4xx_HAL_Driver/Src/stm32g4xx_hal_pwr_ex.c **** /**
1157:Drivers/STM32G4xx_HAL_Driver/Src/stm32g4xx_hal_pwr_ex.c ****   * @brief PWR PVM4 interrupt callback
1158:Drivers/STM32G4xx_HAL_Driver/Src/stm32g4xx_hal_pwr_ex.c ****   * @retval None
1159:Drivers/STM32G4xx_HAL_Driver/Src/stm32g4xx_hal_pwr_ex.c ****   */
1160:Drivers/STM32G4xx_HAL_Driver/Src/stm32g4xx_hal_pwr_ex.c **** __weak void HAL_PWREx_PVM4Callback(void)
1161:Drivers/STM32G4xx_HAL_Driver/Src/stm32g4xx_hal_pwr_ex.c **** {
 2283              		.loc 1 1161 1 view -0
 2284              		.cfi_startproc
 2285              		@ args = 0, pretend = 0, frame = 0
 2286              		@ frame_needed = 0, uses_anonymous_args = 0
 2287              		@ link register save eliminated.
1162:Drivers/STM32G4xx_HAL_Driver/Src/stm32g4xx_hal_pwr_ex.c ****   /* NOTE : This function should not be modified; when the callback is needed,
1163:Drivers/STM32G4xx_HAL_Driver/Src/stm32g4xx_hal_pwr_ex.c ****             HAL_PWREx_PVM4Callback() API can be implemented in the user file
1164:Drivers/STM32G4xx_HAL_Driver/Src/stm32g4xx_hal_pwr_ex.c ****    */
1165:Drivers/STM32G4xx_HAL_Driver/Src/stm32g4xx_hal_pwr_ex.c **** }
ARM GAS  /tmp/cc9EFiwU.s 			page 63


 2288              		.loc 1 1165 1 view .LVU497
 2289 0000 7047     		bx	lr
 2290              		.cfi_endproc
 2291              	.LFE361:
 2293              		.section	.text.HAL_PWREx_PVD_PVM_IRQHandler,"ax",%progbits
 2294              		.align	1
 2295              		.global	HAL_PWREx_PVD_PVM_IRQHandler
 2296              		.syntax unified
 2297              		.thumb
 2298              		.thumb_func
 2299              		.fpu fpv4-sp-d16
 2301              	HAL_PWREx_PVD_PVM_IRQHandler:
 2302              	.LFB357:
1069:Drivers/STM32G4xx_HAL_Driver/Src/stm32g4xx_hal_pwr_ex.c ****   /* Check PWR exti flag */
 2303              		.loc 1 1069 1 view -0
 2304              		.cfi_startproc
 2305              		@ args = 0, pretend = 0, frame = 0
 2306              		@ frame_needed = 0, uses_anonymous_args = 0
 2307 0000 08B5     		push	{r3, lr}
 2308              	.LCFI0:
 2309              		.cfi_def_cfa_offset 8
 2310              		.cfi_offset 3, -8
 2311              		.cfi_offset 14, -4
1071:Drivers/STM32G4xx_HAL_Driver/Src/stm32g4xx_hal_pwr_ex.c ****   {
 2312              		.loc 1 1071 3 view .LVU499
1071:Drivers/STM32G4xx_HAL_Driver/Src/stm32g4xx_hal_pwr_ex.c ****   {
 2313              		.loc 1 1071 6 is_stmt 0 view .LVU500
 2314 0002 1C4B     		ldr	r3, .L209
 2315 0004 5B69     		ldr	r3, [r3, #20]
1071:Drivers/STM32G4xx_HAL_Driver/Src/stm32g4xx_hal_pwr_ex.c ****   {
 2316              		.loc 1 1071 5 view .LVU501
 2317 0006 13F4803F 		tst	r3, #65536
 2318 000a 14D1     		bne	.L204
 2319              	.L198:
1081:Drivers/STM32G4xx_HAL_Driver/Src/stm32g4xx_hal_pwr_ex.c ****   {
 2320              		.loc 1 1081 3 is_stmt 1 view .LVU502
1081:Drivers/STM32G4xx_HAL_Driver/Src/stm32g4xx_hal_pwr_ex.c ****   {
 2321              		.loc 1 1081 6 is_stmt 0 view .LVU503
 2322 000c 194B     		ldr	r3, .L209
 2323 000e 5B6B     		ldr	r3, [r3, #52]
1081:Drivers/STM32G4xx_HAL_Driver/Src/stm32g4xx_hal_pwr_ex.c ****   {
 2324              		.loc 1 1081 5 view .LVU504
 2325 0010 13F0080F 		tst	r3, #8
 2326 0014 16D1     		bne	.L205
 2327              	.L199:
1091:Drivers/STM32G4xx_HAL_Driver/Src/stm32g4xx_hal_pwr_ex.c ****   {
 2328              		.loc 1 1091 3 is_stmt 1 view .LVU505
1091:Drivers/STM32G4xx_HAL_Driver/Src/stm32g4xx_hal_pwr_ex.c ****   {
 2329              		.loc 1 1091 6 is_stmt 0 view .LVU506
 2330 0016 174B     		ldr	r3, .L209
 2331 0018 5B6B     		ldr	r3, [r3, #52]
1091:Drivers/STM32G4xx_HAL_Driver/Src/stm32g4xx_hal_pwr_ex.c ****   {
 2332              		.loc 1 1091 5 view .LVU507
 2333 001a 13F0100F 		tst	r3, #16
 2334 001e 17D1     		bne	.L206
 2335              	.L200:
1100:Drivers/STM32G4xx_HAL_Driver/Src/stm32g4xx_hal_pwr_ex.c ****   {
ARM GAS  /tmp/cc9EFiwU.s 			page 64


 2336              		.loc 1 1100 3 is_stmt 1 view .LVU508
1100:Drivers/STM32G4xx_HAL_Driver/Src/stm32g4xx_hal_pwr_ex.c ****   {
 2337              		.loc 1 1100 6 is_stmt 0 view .LVU509
 2338 0020 144B     		ldr	r3, .L209
 2339 0022 5B6B     		ldr	r3, [r3, #52]
1100:Drivers/STM32G4xx_HAL_Driver/Src/stm32g4xx_hal_pwr_ex.c ****   {
 2340              		.loc 1 1100 5 view .LVU510
 2341 0024 13F0200F 		tst	r3, #32
 2342 0028 18D1     		bne	.L207
 2343              	.L201:
1108:Drivers/STM32G4xx_HAL_Driver/Src/stm32g4xx_hal_pwr_ex.c ****   {
 2344              		.loc 1 1108 3 is_stmt 1 view .LVU511
1108:Drivers/STM32G4xx_HAL_Driver/Src/stm32g4xx_hal_pwr_ex.c ****   {
 2345              		.loc 1 1108 6 is_stmt 0 view .LVU512
 2346 002a 124B     		ldr	r3, .L209
 2347 002c 5B6B     		ldr	r3, [r3, #52]
1108:Drivers/STM32G4xx_HAL_Driver/Src/stm32g4xx_hal_pwr_ex.c ****   {
 2348              		.loc 1 1108 5 view .LVU513
 2349 002e 13F0400F 		tst	r3, #64
 2350 0032 19D1     		bne	.L208
 2351              	.L197:
1116:Drivers/STM32G4xx_HAL_Driver/Src/stm32g4xx_hal_pwr_ex.c **** 
 2352              		.loc 1 1116 1 view .LVU514
 2353 0034 08BD     		pop	{r3, pc}
 2354              	.L204:
1074:Drivers/STM32G4xx_HAL_Driver/Src/stm32g4xx_hal_pwr_ex.c **** 
 2355              		.loc 1 1074 5 is_stmt 1 view .LVU515
 2356 0036 FFF7FEFF 		bl	HAL_PWR_PVDCallback
 2357              	.LVL139:
1077:Drivers/STM32G4xx_HAL_Driver/Src/stm32g4xx_hal_pwr_ex.c ****   }
 2358              		.loc 1 1077 5 view .LVU516
 2359 003a 0E4B     		ldr	r3, .L209
 2360 003c 4FF48032 		mov	r2, #65536
 2361 0040 5A61     		str	r2, [r3, #20]
 2362 0042 E3E7     		b	.L198
 2363              	.L205:
1084:Drivers/STM32G4xx_HAL_Driver/Src/stm32g4xx_hal_pwr_ex.c **** 
 2364              		.loc 1 1084 5 view .LVU517
 2365 0044 FFF7FEFF 		bl	HAL_PWREx_PVM1Callback
 2366              	.LVL140:
1087:Drivers/STM32G4xx_HAL_Driver/Src/stm32g4xx_hal_pwr_ex.c ****   }
 2367              		.loc 1 1087 5 view .LVU518
 2368 0048 0A4B     		ldr	r3, .L209
 2369 004a 0822     		movs	r2, #8
 2370 004c 5A63     		str	r2, [r3, #52]
 2371 004e E2E7     		b	.L199
 2372              	.L206:
1094:Drivers/STM32G4xx_HAL_Driver/Src/stm32g4xx_hal_pwr_ex.c **** 
 2373              		.loc 1 1094 5 view .LVU519
 2374 0050 FFF7FEFF 		bl	HAL_PWREx_PVM2Callback
 2375              	.LVL141:
1097:Drivers/STM32G4xx_HAL_Driver/Src/stm32g4xx_hal_pwr_ex.c ****   }
 2376              		.loc 1 1097 5 view .LVU520
 2377 0054 074B     		ldr	r3, .L209
 2378 0056 1022     		movs	r2, #16
 2379 0058 5A63     		str	r2, [r3, #52]
 2380 005a E1E7     		b	.L200
ARM GAS  /tmp/cc9EFiwU.s 			page 65


 2381              	.L207:
1103:Drivers/STM32G4xx_HAL_Driver/Src/stm32g4xx_hal_pwr_ex.c **** 
 2382              		.loc 1 1103 5 view .LVU521
 2383 005c FFF7FEFF 		bl	HAL_PWREx_PVM3Callback
 2384              	.LVL142:
1106:Drivers/STM32G4xx_HAL_Driver/Src/stm32g4xx_hal_pwr_ex.c ****   }
 2385              		.loc 1 1106 5 view .LVU522
 2386 0060 044B     		ldr	r3, .L209
 2387 0062 2022     		movs	r2, #32
 2388 0064 5A63     		str	r2, [r3, #52]
 2389 0066 E0E7     		b	.L201
 2390              	.L208:
1111:Drivers/STM32G4xx_HAL_Driver/Src/stm32g4xx_hal_pwr_ex.c **** 
 2391              		.loc 1 1111 5 view .LVU523
 2392 0068 FFF7FEFF 		bl	HAL_PWREx_PVM4Callback
 2393              	.LVL143:
1114:Drivers/STM32G4xx_HAL_Driver/Src/stm32g4xx_hal_pwr_ex.c ****   }
 2394              		.loc 1 1114 5 view .LVU524
 2395 006c 014B     		ldr	r3, .L209
 2396 006e 4022     		movs	r2, #64
 2397 0070 5A63     		str	r2, [r3, #52]
1116:Drivers/STM32G4xx_HAL_Driver/Src/stm32g4xx_hal_pwr_ex.c **** 
 2398              		.loc 1 1116 1 is_stmt 0 view .LVU525
 2399 0072 DFE7     		b	.L197
 2400              	.L210:
 2401              		.align	2
 2402              	.L209:
 2403 0074 00040140 		.word	1073808384
 2404              		.cfi_endproc
 2405              	.LFE357:
 2407              		.text
 2408              	.Letext0:
 2409              		.file 2 "/home/alex/opt/gcc-arm-none-eabi-8-2018-q4-major/arm-none-eabi/include/machine/_default_t
 2410              		.file 3 "/home/alex/opt/gcc-arm-none-eabi-8-2018-q4-major/arm-none-eabi/include/sys/_stdint.h"
 2411              		.file 4 "Drivers/CMSIS/Include/core_cm4.h"
 2412              		.file 5 "Drivers/CMSIS/Device/ST/STM32G4xx/Include/system_stm32g4xx.h"
 2413              		.file 6 "Drivers/CMSIS/Device/ST/STM32G4xx/Include/stm32g474xx.h"
 2414              		.file 7 "Drivers/STM32G4xx_HAL_Driver/Inc/stm32g4xx_hal_def.h"
 2415              		.file 8 "Drivers/STM32G4xx_HAL_Driver/Inc/stm32g4xx_hal_flash.h"
 2416              		.file 9 "Drivers/STM32G4xx_HAL_Driver/Inc/stm32g4xx_hal_pwr_ex.h"
 2417              		.file 10 "Drivers/STM32G4xx_HAL_Driver/Inc/stm32g4xx_hal.h"
 2418              		.file 11 "Drivers/STM32G4xx_HAL_Driver/Inc/stm32g4xx_hal_pwr.h"
ARM GAS  /tmp/cc9EFiwU.s 			page 66

