ARM GAS  /tmp/ccAo6puH.s 			page 1


   1              		.cpu cortex-m4
   2              		.eabi_attribute 27, 1
   3              		.eabi_attribute 28, 1
   4              		.eabi_attribute 20, 1
   5              		.eabi_attribute 21, 1
   6              		.eabi_attribute 23, 3
   7              		.eabi_attribute 24, 1
   8              		.eabi_attribute 25, 1
   9              		.eabi_attribute 26, 1
  10              		.eabi_attribute 30, 1
  11              		.eabi_attribute 34, 1
  12              		.eabi_attribute 18, 4
  13              		.file	"usart.c"
  14              		.text
  15              	.Ltext0:
  16              		.cfi_sections	.debug_frame
  17              		.section	.text.MX_USART1_UART_Init,"ax",%progbits
  18              		.align	1
  19              		.global	MX_USART1_UART_Init
  20              		.arch armv7e-m
  21              		.syntax unified
  22              		.thumb
  23              		.thumb_func
  24              		.fpu fpv4-sp-d16
  26              	MX_USART1_UART_Init:
  27              	.LFB406:
  28              		.file 1 "Src/usart.c"
   1:Src/usart.c   **** /**
   2:Src/usart.c   ****   ******************************************************************************
   3:Src/usart.c   ****   * File Name          : USART.c
   4:Src/usart.c   ****   * Description        : This file provides code for the configuration
   5:Src/usart.c   ****   *                      of the USART instances.
   6:Src/usart.c   ****   ******************************************************************************
   7:Src/usart.c   ****   * @attention
   8:Src/usart.c   ****   *
   9:Src/usart.c   ****   * <h2><center>&copy; Copyright (c) 2020 STMicroelectronics.
  10:Src/usart.c   ****   * All rights reserved.</center></h2>
  11:Src/usart.c   ****   *
  12:Src/usart.c   ****   * This software component is licensed by ST under BSD 3-Clause license,
  13:Src/usart.c   ****   * the "License"; You may not use this file except in compliance with the
  14:Src/usart.c   ****   * License. You may obtain a copy of the License at:
  15:Src/usart.c   ****   *                        opensource.org/licenses/BSD-3-Clause
  16:Src/usart.c   ****   *
  17:Src/usart.c   ****   ******************************************************************************
  18:Src/usart.c   ****   */
  19:Src/usart.c   **** 
  20:Src/usart.c   **** /* Includes ------------------------------------------------------------------*/
  21:Src/usart.c   **** #include "usart.h"
  22:Src/usart.c   **** 
  23:Src/usart.c   **** /* USER CODE BEGIN 0 */
  24:Src/usart.c   **** 
  25:Src/usart.c   **** /* USER CODE END 0 */
  26:Src/usart.c   **** 
  27:Src/usart.c   **** UART_HandleTypeDef huart1;
  28:Src/usart.c   **** 
  29:Src/usart.c   **** /* USART1 init function */
  30:Src/usart.c   **** 
ARM GAS  /tmp/ccAo6puH.s 			page 2


  31:Src/usart.c   **** void MX_USART1_UART_Init(void)
  32:Src/usart.c   **** {
  29              		.loc 1 32 1 view -0
  30              		.cfi_startproc
  31              		@ args = 0, pretend = 0, frame = 0
  32              		@ frame_needed = 0, uses_anonymous_args = 0
  33 0000 08B5     		push	{r3, lr}
  34              	.LCFI0:
  35              		.cfi_def_cfa_offset 8
  36              		.cfi_offset 3, -8
  37              		.cfi_offset 14, -4
  33:Src/usart.c   **** 
  34:Src/usart.c   ****   huart1.Instance = USART1;
  38              		.loc 1 34 3 view .LVU1
  39              		.loc 1 34 19 is_stmt 0 view .LVU2
  40 0002 1748     		ldr	r0, .L11
  41 0004 174B     		ldr	r3, .L11+4
  42 0006 0360     		str	r3, [r0]
  35:Src/usart.c   ****   huart1.Init.BaudRate = 115200;
  43              		.loc 1 35 3 is_stmt 1 view .LVU3
  44              		.loc 1 35 24 is_stmt 0 view .LVU4
  45 0008 4FF4E133 		mov	r3, #115200
  46 000c 4360     		str	r3, [r0, #4]
  36:Src/usart.c   ****   huart1.Init.WordLength = UART_WORDLENGTH_8B;
  47              		.loc 1 36 3 is_stmt 1 view .LVU5
  48              		.loc 1 36 26 is_stmt 0 view .LVU6
  49 000e 0023     		movs	r3, #0
  50 0010 8360     		str	r3, [r0, #8]
  37:Src/usart.c   ****   huart1.Init.StopBits = UART_STOPBITS_1;
  51              		.loc 1 37 3 is_stmt 1 view .LVU7
  52              		.loc 1 37 24 is_stmt 0 view .LVU8
  53 0012 C360     		str	r3, [r0, #12]
  38:Src/usart.c   ****   huart1.Init.Parity = UART_PARITY_NONE;
  54              		.loc 1 38 3 is_stmt 1 view .LVU9
  55              		.loc 1 38 22 is_stmt 0 view .LVU10
  56 0014 0361     		str	r3, [r0, #16]
  39:Src/usart.c   ****   huart1.Init.Mode = UART_MODE_TX_RX;
  57              		.loc 1 39 3 is_stmt 1 view .LVU11
  58              		.loc 1 39 20 is_stmt 0 view .LVU12
  59 0016 0C22     		movs	r2, #12
  60 0018 4261     		str	r2, [r0, #20]
  40:Src/usart.c   ****   huart1.Init.HwFlowCtl = UART_HWCONTROL_NONE;
  61              		.loc 1 40 3 is_stmt 1 view .LVU13
  62              		.loc 1 40 25 is_stmt 0 view .LVU14
  63 001a 8361     		str	r3, [r0, #24]
  41:Src/usart.c   ****   huart1.Init.OverSampling = UART_OVERSAMPLING_16;
  64              		.loc 1 41 3 is_stmt 1 view .LVU15
  65              		.loc 1 41 28 is_stmt 0 view .LVU16
  66 001c C361     		str	r3, [r0, #28]
  42:Src/usart.c   ****   huart1.Init.OneBitSampling = UART_ONE_BIT_SAMPLE_DISABLE;
  67              		.loc 1 42 3 is_stmt 1 view .LVU17
  68              		.loc 1 42 30 is_stmt 0 view .LVU18
  69 001e 0362     		str	r3, [r0, #32]
  43:Src/usart.c   ****   huart1.Init.ClockPrescaler = UART_PRESCALER_DIV1;
  70              		.loc 1 43 3 is_stmt 1 view .LVU19
  71              		.loc 1 43 30 is_stmt 0 view .LVU20
  72 0020 4362     		str	r3, [r0, #36]
ARM GAS  /tmp/ccAo6puH.s 			page 3


  44:Src/usart.c   ****   huart1.AdvancedInit.AdvFeatureInit = UART_ADVFEATURE_NO_INIT;
  73              		.loc 1 44 3 is_stmt 1 view .LVU21
  74              		.loc 1 44 38 is_stmt 0 view .LVU22
  75 0022 8362     		str	r3, [r0, #40]
  45:Src/usart.c   ****   if (HAL_UART_Init(&huart1) != HAL_OK)
  76              		.loc 1 45 3 is_stmt 1 view .LVU23
  77              		.loc 1 45 7 is_stmt 0 view .LVU24
  78 0024 FFF7FEFF 		bl	HAL_UART_Init
  79              	.LVL0:
  80              		.loc 1 45 6 view .LVU25
  81 0028 70B9     		cbnz	r0, .L7
  82              	.L2:
  46:Src/usart.c   ****   {
  47:Src/usart.c   ****     Error_Handler();
  48:Src/usart.c   ****   }
  49:Src/usart.c   ****   if (HAL_UARTEx_SetTxFifoThreshold(&huart1, UART_TXFIFO_THRESHOLD_1_8) != HAL_OK)
  83              		.loc 1 49 3 is_stmt 1 view .LVU26
  84              		.loc 1 49 7 is_stmt 0 view .LVU27
  85 002a 0021     		movs	r1, #0
  86 002c 0C48     		ldr	r0, .L11
  87 002e FFF7FEFF 		bl	HAL_UARTEx_SetTxFifoThreshold
  88              	.LVL1:
  89              		.loc 1 49 6 view .LVU28
  90 0032 60B9     		cbnz	r0, .L8
  91              	.L3:
  50:Src/usart.c   ****   {
  51:Src/usart.c   ****     Error_Handler();
  52:Src/usart.c   ****   }
  53:Src/usart.c   ****   if (HAL_UARTEx_SetRxFifoThreshold(&huart1, UART_RXFIFO_THRESHOLD_1_8) != HAL_OK)
  92              		.loc 1 53 3 is_stmt 1 view .LVU29
  93              		.loc 1 53 7 is_stmt 0 view .LVU30
  94 0034 0021     		movs	r1, #0
  95 0036 0A48     		ldr	r0, .L11
  96 0038 FFF7FEFF 		bl	HAL_UARTEx_SetRxFifoThreshold
  97              	.LVL2:
  98              		.loc 1 53 6 view .LVU31
  99 003c 50B9     		cbnz	r0, .L9
 100              	.L4:
  54:Src/usart.c   ****   {
  55:Src/usart.c   ****     Error_Handler();
  56:Src/usart.c   ****   }
  57:Src/usart.c   ****   if (HAL_UARTEx_DisableFifoMode(&huart1) != HAL_OK)
 101              		.loc 1 57 3 is_stmt 1 view .LVU32
 102              		.loc 1 57 7 is_stmt 0 view .LVU33
 103 003e 0848     		ldr	r0, .L11
 104 0040 FFF7FEFF 		bl	HAL_UARTEx_DisableFifoMode
 105              	.LVL3:
 106              		.loc 1 57 6 view .LVU34
 107 0044 48B9     		cbnz	r0, .L10
 108              	.L1:
  58:Src/usart.c   ****   {
  59:Src/usart.c   ****     Error_Handler();
  60:Src/usart.c   ****   }
  61:Src/usart.c   **** 
  62:Src/usart.c   **** }
 109              		.loc 1 62 1 view .LVU35
 110 0046 08BD     		pop	{r3, pc}
ARM GAS  /tmp/ccAo6puH.s 			page 4


 111              	.L7:
  47:Src/usart.c   ****   }
 112              		.loc 1 47 5 is_stmt 1 view .LVU36
 113 0048 FFF7FEFF 		bl	Error_Handler
 114              	.LVL4:
 115 004c EDE7     		b	.L2
 116              	.L8:
  51:Src/usart.c   ****   }
 117              		.loc 1 51 5 view .LVU37
 118 004e FFF7FEFF 		bl	Error_Handler
 119              	.LVL5:
 120 0052 EFE7     		b	.L3
 121              	.L9:
  55:Src/usart.c   ****   }
 122              		.loc 1 55 5 view .LVU38
 123 0054 FFF7FEFF 		bl	Error_Handler
 124              	.LVL6:
 125 0058 F1E7     		b	.L4
 126              	.L10:
  59:Src/usart.c   ****   }
 127              		.loc 1 59 5 view .LVU39
 128 005a FFF7FEFF 		bl	Error_Handler
 129              	.LVL7:
 130              		.loc 1 62 1 is_stmt 0 view .LVU40
 131 005e F2E7     		b	.L1
 132              	.L12:
 133              		.align	2
 134              	.L11:
 135 0060 00000000 		.word	huart1
 136 0064 00380140 		.word	1073821696
 137              		.cfi_endproc
 138              	.LFE406:
 140              		.section	.text.HAL_UART_MspInit,"ax",%progbits
 141              		.align	1
 142              		.global	HAL_UART_MspInit
 143              		.syntax unified
 144              		.thumb
 145              		.thumb_func
 146              		.fpu fpv4-sp-d16
 148              	HAL_UART_MspInit:
 149              	.LVL8:
 150              	.LFB407:
  63:Src/usart.c   **** 
  64:Src/usart.c   **** void HAL_UART_MspInit(UART_HandleTypeDef* uartHandle)
  65:Src/usart.c   **** {
 151              		.loc 1 65 1 is_stmt 1 view -0
 152              		.cfi_startproc
 153              		@ args = 0, pretend = 0, frame = 32
 154              		@ frame_needed = 0, uses_anonymous_args = 0
 155              		.loc 1 65 1 is_stmt 0 view .LVU42
 156 0000 00B5     		push	{lr}
 157              	.LCFI1:
 158              		.cfi_def_cfa_offset 4
 159              		.cfi_offset 14, -4
 160 0002 89B0     		sub	sp, sp, #36
 161              	.LCFI2:
 162              		.cfi_def_cfa_offset 40
ARM GAS  /tmp/ccAo6puH.s 			page 5


  66:Src/usart.c   **** 
  67:Src/usart.c   ****   GPIO_InitTypeDef GPIO_InitStruct = {0};
 163              		.loc 1 67 3 is_stmt 1 view .LVU43
 164              		.loc 1 67 20 is_stmt 0 view .LVU44
 165 0004 0023     		movs	r3, #0
 166 0006 0393     		str	r3, [sp, #12]
 167 0008 0493     		str	r3, [sp, #16]
 168 000a 0593     		str	r3, [sp, #20]
 169 000c 0693     		str	r3, [sp, #24]
 170 000e 0793     		str	r3, [sp, #28]
  68:Src/usart.c   ****   if(uartHandle->Instance==USART1)
 171              		.loc 1 68 3 is_stmt 1 view .LVU45
 172              		.loc 1 68 16 is_stmt 0 view .LVU46
 173 0010 0268     		ldr	r2, [r0]
 174              		.loc 1 68 5 view .LVU47
 175 0012 124B     		ldr	r3, .L17
 176 0014 9A42     		cmp	r2, r3
 177 0016 02D0     		beq	.L16
 178              	.LVL9:
 179              	.L13:
  69:Src/usart.c   ****   {
  70:Src/usart.c   ****   /* USER CODE BEGIN USART1_MspInit 0 */
  71:Src/usart.c   **** 
  72:Src/usart.c   ****   /* USER CODE END USART1_MspInit 0 */
  73:Src/usart.c   ****     /* USART1 clock enable */
  74:Src/usart.c   ****     __HAL_RCC_USART1_CLK_ENABLE();
  75:Src/usart.c   ****   
  76:Src/usart.c   ****     __HAL_RCC_GPIOC_CLK_ENABLE();
  77:Src/usart.c   ****     /**USART1 GPIO Configuration    
  78:Src/usart.c   ****     PC4     ------> USART1_TX
  79:Src/usart.c   ****     PC5     ------> USART1_RX 
  80:Src/usart.c   ****     */
  81:Src/usart.c   ****     GPIO_InitStruct.Pin = USART1_TX_Pin|USART1_RX_Pin;
  82:Src/usart.c   ****     GPIO_InitStruct.Mode = GPIO_MODE_AF_PP;
  83:Src/usart.c   ****     GPIO_InitStruct.Pull = GPIO_NOPULL;
  84:Src/usart.c   ****     GPIO_InitStruct.Speed = GPIO_SPEED_FREQ_LOW;
  85:Src/usart.c   ****     GPIO_InitStruct.Alternate = GPIO_AF7_USART1;
  86:Src/usart.c   ****     HAL_GPIO_Init(GPIOC, &GPIO_InitStruct);
  87:Src/usart.c   **** 
  88:Src/usart.c   ****   /* USER CODE BEGIN USART1_MspInit 1 */
  89:Src/usart.c   **** 
  90:Src/usart.c   ****   /* USER CODE END USART1_MspInit 1 */
  91:Src/usart.c   ****   }
  92:Src/usart.c   **** }
 180              		.loc 1 92 1 view .LVU48
 181 0018 09B0     		add	sp, sp, #36
 182              	.LCFI3:
 183              		.cfi_remember_state
 184              		.cfi_def_cfa_offset 4
 185              		@ sp needed
 186 001a 5DF804FB 		ldr	pc, [sp], #4
 187              	.LVL10:
 188              	.L16:
 189              	.LCFI4:
 190              		.cfi_restore_state
  74:Src/usart.c   ****   
 191              		.loc 1 74 5 is_stmt 1 view .LVU49
ARM GAS  /tmp/ccAo6puH.s 			page 6


 192              	.LBB2:
  74:Src/usart.c   ****   
 193              		.loc 1 74 5 view .LVU50
  74:Src/usart.c   ****   
 194              		.loc 1 74 5 view .LVU51
 195 001e 03F55843 		add	r3, r3, #55296
 196 0022 1A6E     		ldr	r2, [r3, #96]
 197 0024 42F48042 		orr	r2, r2, #16384
 198 0028 1A66     		str	r2, [r3, #96]
  74:Src/usart.c   ****   
 199              		.loc 1 74 5 view .LVU52
 200 002a 1A6E     		ldr	r2, [r3, #96]
 201 002c 02F48042 		and	r2, r2, #16384
 202 0030 0192     		str	r2, [sp, #4]
  74:Src/usart.c   ****   
 203              		.loc 1 74 5 view .LVU53
 204 0032 019A     		ldr	r2, [sp, #4]
 205              	.LBE2:
  76:Src/usart.c   ****     /**USART1 GPIO Configuration    
 206              		.loc 1 76 5 view .LVU54
 207              	.LBB3:
  76:Src/usart.c   ****     /**USART1 GPIO Configuration    
 208              		.loc 1 76 5 view .LVU55
  76:Src/usart.c   ****     /**USART1 GPIO Configuration    
 209              		.loc 1 76 5 view .LVU56
 210 0034 DA6C     		ldr	r2, [r3, #76]
 211 0036 42F00402 		orr	r2, r2, #4
 212 003a DA64     		str	r2, [r3, #76]
  76:Src/usart.c   ****     /**USART1 GPIO Configuration    
 213              		.loc 1 76 5 view .LVU57
 214 003c DB6C     		ldr	r3, [r3, #76]
 215 003e 03F00403 		and	r3, r3, #4
 216 0042 0293     		str	r3, [sp, #8]
  76:Src/usart.c   ****     /**USART1 GPIO Configuration    
 217              		.loc 1 76 5 view .LVU58
 218 0044 029B     		ldr	r3, [sp, #8]
 219              	.LBE3:
  81:Src/usart.c   ****     GPIO_InitStruct.Mode = GPIO_MODE_AF_PP;
 220              		.loc 1 81 5 view .LVU59
  81:Src/usart.c   ****     GPIO_InitStruct.Mode = GPIO_MODE_AF_PP;
 221              		.loc 1 81 25 is_stmt 0 view .LVU60
 222 0046 3023     		movs	r3, #48
 223 0048 0393     		str	r3, [sp, #12]
  82:Src/usart.c   ****     GPIO_InitStruct.Pull = GPIO_NOPULL;
 224              		.loc 1 82 5 is_stmt 1 view .LVU61
  82:Src/usart.c   ****     GPIO_InitStruct.Pull = GPIO_NOPULL;
 225              		.loc 1 82 26 is_stmt 0 view .LVU62
 226 004a 0223     		movs	r3, #2
 227 004c 0493     		str	r3, [sp, #16]
  83:Src/usart.c   ****     GPIO_InitStruct.Speed = GPIO_SPEED_FREQ_LOW;
 228              		.loc 1 83 5 is_stmt 1 view .LVU63
  84:Src/usart.c   ****     GPIO_InitStruct.Alternate = GPIO_AF7_USART1;
 229              		.loc 1 84 5 view .LVU64
  85:Src/usart.c   ****     HAL_GPIO_Init(GPIOC, &GPIO_InitStruct);
 230              		.loc 1 85 5 view .LVU65
  85:Src/usart.c   ****     HAL_GPIO_Init(GPIOC, &GPIO_InitStruct);
 231              		.loc 1 85 31 is_stmt 0 view .LVU66
ARM GAS  /tmp/ccAo6puH.s 			page 7


 232 004e 0723     		movs	r3, #7
 233 0050 0793     		str	r3, [sp, #28]
  86:Src/usart.c   **** 
 234              		.loc 1 86 5 is_stmt 1 view .LVU67
 235 0052 03A9     		add	r1, sp, #12
 236 0054 0248     		ldr	r0, .L17+4
 237              	.LVL11:
  86:Src/usart.c   **** 
 238              		.loc 1 86 5 is_stmt 0 view .LVU68
 239 0056 FFF7FEFF 		bl	HAL_GPIO_Init
 240              	.LVL12:
 241              		.loc 1 92 1 view .LVU69
 242 005a DDE7     		b	.L13
 243              	.L18:
 244              		.align	2
 245              	.L17:
 246 005c 00380140 		.word	1073821696
 247 0060 00080048 		.word	1207961600
 248              		.cfi_endproc
 249              	.LFE407:
 251              		.section	.text.HAL_UART_MspDeInit,"ax",%progbits
 252              		.align	1
 253              		.global	HAL_UART_MspDeInit
 254              		.syntax unified
 255              		.thumb
 256              		.thumb_func
 257              		.fpu fpv4-sp-d16
 259              	HAL_UART_MspDeInit:
 260              	.LVL13:
 261              	.LFB408:
  93:Src/usart.c   **** 
  94:Src/usart.c   **** void HAL_UART_MspDeInit(UART_HandleTypeDef* uartHandle)
  95:Src/usart.c   **** {
 262              		.loc 1 95 1 is_stmt 1 view -0
 263              		.cfi_startproc
 264              		@ args = 0, pretend = 0, frame = 0
 265              		@ frame_needed = 0, uses_anonymous_args = 0
 266              		.loc 1 95 1 is_stmt 0 view .LVU71
 267 0000 08B5     		push	{r3, lr}
 268              	.LCFI5:
 269              		.cfi_def_cfa_offset 8
 270              		.cfi_offset 3, -8
 271              		.cfi_offset 14, -4
  96:Src/usart.c   **** 
  97:Src/usart.c   ****   if(uartHandle->Instance==USART1)
 272              		.loc 1 97 3 is_stmt 1 view .LVU72
 273              		.loc 1 97 16 is_stmt 0 view .LVU73
 274 0002 0268     		ldr	r2, [r0]
 275              		.loc 1 97 5 view .LVU74
 276 0004 064B     		ldr	r3, .L23
 277 0006 9A42     		cmp	r2, r3
 278 0008 00D0     		beq	.L22
 279              	.LVL14:
 280              	.L19:
  98:Src/usart.c   ****   {
  99:Src/usart.c   ****   /* USER CODE BEGIN USART1_MspDeInit 0 */
 100:Src/usart.c   **** 
ARM GAS  /tmp/ccAo6puH.s 			page 8


 101:Src/usart.c   ****   /* USER CODE END USART1_MspDeInit 0 */
 102:Src/usart.c   ****     /* Peripheral clock disable */
 103:Src/usart.c   ****     __HAL_RCC_USART1_CLK_DISABLE();
 104:Src/usart.c   ****   
 105:Src/usart.c   ****     /**USART1 GPIO Configuration    
 106:Src/usart.c   ****     PC4     ------> USART1_TX
 107:Src/usart.c   ****     PC5     ------> USART1_RX 
 108:Src/usart.c   ****     */
 109:Src/usart.c   ****     HAL_GPIO_DeInit(GPIOC, USART1_TX_Pin|USART1_RX_Pin);
 110:Src/usart.c   **** 
 111:Src/usart.c   ****   /* USER CODE BEGIN USART1_MspDeInit 1 */
 112:Src/usart.c   **** 
 113:Src/usart.c   ****   /* USER CODE END USART1_MspDeInit 1 */
 114:Src/usart.c   ****   }
 115:Src/usart.c   **** } 
 281              		.loc 1 115 1 view .LVU75
 282 000a 08BD     		pop	{r3, pc}
 283              	.LVL15:
 284              	.L22:
 103:Src/usart.c   ****   
 285              		.loc 1 103 5 is_stmt 1 view .LVU76
 286 000c 054A     		ldr	r2, .L23+4
 287 000e 136E     		ldr	r3, [r2, #96]
 288 0010 23F48043 		bic	r3, r3, #16384
 289 0014 1366     		str	r3, [r2, #96]
 109:Src/usart.c   **** 
 290              		.loc 1 109 5 view .LVU77
 291 0016 3021     		movs	r1, #48
 292 0018 0348     		ldr	r0, .L23+8
 293              	.LVL16:
 109:Src/usart.c   **** 
 294              		.loc 1 109 5 is_stmt 0 view .LVU78
 295 001a FFF7FEFF 		bl	HAL_GPIO_DeInit
 296              	.LVL17:
 297              		.loc 1 115 1 view .LVU79
 298 001e F4E7     		b	.L19
 299              	.L24:
 300              		.align	2
 301              	.L23:
 302 0020 00380140 		.word	1073821696
 303 0024 00100240 		.word	1073876992
 304 0028 00080048 		.word	1207961600
 305              		.cfi_endproc
 306              	.LFE408:
 308              		.comm	huart1,140,4
 309              		.text
 310              	.Letext0:
 311              		.file 2 "/home/alex/opt/gcc-arm-none-eabi-8-2018-q4-major/arm-none-eabi/include/machine/_default_t
 312              		.file 3 "/home/alex/opt/gcc-arm-none-eabi-8-2018-q4-major/arm-none-eabi/include/sys/_stdint.h"
 313              		.file 4 "Drivers/CMSIS/Include/core_cm4.h"
 314              		.file 5 "Drivers/CMSIS/Device/ST/STM32G4xx/Include/system_stm32g4xx.h"
 315              		.file 6 "Drivers/CMSIS/Device/ST/STM32G4xx/Include/stm32g474xx.h"
 316              		.file 7 "Drivers/STM32G4xx_HAL_Driver/Inc/stm32g4xx_hal_def.h"
 317              		.file 8 "Drivers/STM32G4xx_HAL_Driver/Inc/stm32g4xx_hal_gpio.h"
 318              		.file 9 "Drivers/STM32G4xx_HAL_Driver/Inc/stm32g4xx_hal_dma.h"
 319              		.file 10 "Drivers/STM32G4xx_HAL_Driver/Inc/stm32g4xx_hal_flash.h"
 320              		.file 11 "Drivers/STM32G4xx_HAL_Driver/Inc/stm32g4xx_hal_uart.h"
ARM GAS  /tmp/ccAo6puH.s 			page 9


 321              		.file 12 "Drivers/STM32G4xx_HAL_Driver/Inc/stm32g4xx_hal.h"
 322              		.file 13 "Inc/usart.h"
 323              		.file 14 "Drivers/STM32G4xx_HAL_Driver/Inc/stm32g4xx_hal_uart_ex.h"
 324              		.file 15 "Inc/main.h"
ARM GAS  /tmp/ccAo6puH.s 			page 10

